
========================================================================

** ELF Header Information

    File Name: uart_poll\uart_poll.axf

    Machine class: ELFCLASS32 (32-bit)
    Data encoding: ELFDATA2LSB (Little endian)
    Header version: EV_CURRENT (Current version)
    Operating System ABI: none
    ABI Version: 0
    File Type: ET_EXEC (Executable) (2)
    Machine: EM_ARM (ARM)

    Image Entry point: 0x08000189
    Flags: EF_ARM_HASENTRY (0x05000002)

    ARM ELF revision: 5 (ABI version 2)

    Conforms to Base float procedure-call standard

    Built with
    Component: ARM Compiler 5.06 update 6 (build 750) Tool: armasm [4d35ec]
    Component: ARM Compiler 5.06 update 6 (build 750) Tool: armlink [4d35ed]

    Header size: 52 bytes (0x34)
    Program header entry size: 32 bytes (0x20)
    Section header entry size: 40 bytes (0x28)

    Program header entries: 1
    Section header entries: 16

    Program header offset: 836372 (0x000cc314)
    Section header offset: 836404 (0x000cc334)

    Section header string table index: 15

========================================================================

** Program header #0 (PT_LOAD) [PF_X + PF_W + PF_R + PF_ARM_ENTRY]
    Size : 11756 bytes (10460 bytes in file)
    Virtual address: 0x08000000 (Alignment 8)


========================================================================

** Section #1 'ER_IROM1' (SHT_PROGBITS) [SHF_ALLOC + SHF_EXECINSTR]
    Size   : 10420 bytes (alignment 4)
    Address: 0x08000000

    $d.realdata
    RESET
    __Vectors
        0x08000000:    20000538    8..     DCD    536872248
        0x08000004:    0800019d    ....    DCD    134218141
        0x08000008:    0800197f    ....    DCD    134224255
        0x0800000c:    080014ed    ....    DCD    134223085
        0x08000010:    0800197d    }...    DCD    134224253
        0x08000014:    080002e9    ....    DCD    134218473
        0x08000018:    08001df7    ....    DCD    134225399
        0x0800001c:    00000000    ....    DCD    0
        0x08000020:    00000000    ....    DCD    0
        0x08000024:    00000000    ....    DCD    0
        0x08000028:    00000000    ....    DCD    0
        0x0800002c:    08001b73    s...    DCD    134224755
        0x08000030:    080002eb    ....    DCD    134218475
        0x08000034:    00000000    ....    DCD    0
        0x08000038:    08001b71    q...    DCD    134224753
        0x0800003c:    08001b75    u...    DCD    134224757
        0x08000040:    080001dd    ....    DCD    134218205
        0x08000044:    080001dd    ....    DCD    134218205
        0x08000048:    080001dd    ....    DCD    134218205
        0x0800004c:    080001dd    ....    DCD    134218205
        0x08000050:    080001dd    ....    DCD    134218205
        0x08000054:    080001dd    ....    DCD    134218205
        0x08000058:    080001dd    ....    DCD    134218205
        0x0800005c:    080001dd    ....    DCD    134218205
        0x08000060:    080001dd    ....    DCD    134218205
        0x08000064:    08000581    ....    DCD    134219137
        0x08000068:    080001dd    ....    DCD    134218205
        0x0800006c:    080001dd    ....    DCD    134218205
        0x08000070:    080001dd    ....    DCD    134218205
        0x08000074:    080001dd    ....    DCD    134218205
        0x08000078:    080001dd    ....    DCD    134218205
        0x0800007c:    080001dd    ....    DCD    134218205
        0x08000080:    080001dd    ....    DCD    134218205
        0x08000084:    080001dd    ....    DCD    134218205
        0x08000088:    080001dd    ....    DCD    134218205
        0x0800008c:    080001dd    ....    DCD    134218205
        0x08000090:    080001dd    ....    DCD    134218205
        0x08000094:    080001dd    ....    DCD    134218205
        0x08000098:    080001dd    ....    DCD    134218205
        0x0800009c:    080001dd    ....    DCD    134218205
        0x080000a0:    080001dd    ....    DCD    134218205
        0x080000a4:    080001dd    ....    DCD    134218205
        0x080000a8:    080001dd    ....    DCD    134218205
        0x080000ac:    080001dd    ....    DCD    134218205
        0x080000b0:    080001dd    ....    DCD    134218205
        0x080000b4:    080001dd    ....    DCD    134218205
        0x080000b8:    080001dd    ....    DCD    134218205
        0x080000bc:    080001dd    ....    DCD    134218205
        0x080000c0:    080001dd    ....    DCD    134218205
        0x080000c4:    080001dd    ....    DCD    134218205
        0x080000c8:    080001dd    ....    DCD    134218205
        0x080000cc:    080001dd    ....    DCD    134218205
        0x080000d0:    080001dd    ....    DCD    134218205
        0x080000d4:    080001dd    ....    DCD    134218205
        0x080000d8:    080001dd    ....    DCD    134218205
        0x080000dc:    080001dd    ....    DCD    134218205
        0x080000e0:    080001dd    ....    DCD    134218205
        0x080000e4:    080001dd    ....    DCD    134218205
        0x080000e8:    080001dd    ....    DCD    134218205
        0x080000ec:    080001dd    ....    DCD    134218205
        0x080000f0:    080001dd    ....    DCD    134218205
        0x080000f4:    080001dd    ....    DCD    134218205
        0x080000f8:    080001dd    ....    DCD    134218205
        0x080000fc:    080001dd    ....    DCD    134218205
        0x08000100:    080001dd    ....    DCD    134218205
        0x08000104:    080001dd    ....    DCD    134218205
        0x08000108:    080001dd    ....    DCD    134218205
        0x0800010c:    080001dd    ....    DCD    134218205
        0x08000110:    080001dd    ....    DCD    134218205
        0x08000114:    080001dd    ....    DCD    134218205
        0x08000118:    080001dd    ....    DCD    134218205
        0x0800011c:    080001dd    ....    DCD    134218205
        0x08000120:    080001dd    ....    DCD    134218205
        0x08000124:    080001dd    ....    DCD    134218205
        0x08000128:    080001dd    ....    DCD    134218205
        0x0800012c:    080001dd    ....    DCD    134218205
        0x08000130:    080001dd    ....    DCD    134218205
        0x08000134:    080001dd    ....    DCD    134218205
        0x08000138:    080001dd    ....    DCD    134218205
        0x0800013c:    080001dd    ....    DCD    134218205
        0x08000140:    080001dd    ....    DCD    134218205
        0x08000144:    080001dd    ....    DCD    134218205
        0x08000148:    080001dd    ....    DCD    134218205
        0x0800014c:    080001dd    ....    DCD    134218205
        0x08000150:    080001dd    ....    DCD    134218205
        0x08000154:    080001dd    ....    DCD    134218205
        0x08000158:    080001dd    ....    DCD    134218205
        0x0800015c:    080001dd    ....    DCD    134218205
        0x08000160:    080001dd    ....    DCD    134218205
        0x08000164:    080001dd    ....    DCD    134218205
        0x08000168:    080001dd    ....    DCD    134218205
        0x0800016c:    080001dd    ....    DCD    134218205
        0x08000170:    080001dd    ....    DCD    134218205
        0x08000174:    080001dd    ....    DCD    134218205
        0x08000178:    080001dd    ....    DCD    134218205
        0x0800017c:    00000000    ....    DCD    0
        0x08000180:    080001dd    ....    DCD    134218205
        0x08000184:    080001dd    ....    DCD    134218205
    $t
    .ARM.Collect$$$$00000000
    .ARM.Collect$$$$00000001
    __Vectors_End
    __main
    _main_stk
        0x08000188:    f8dfd00c    ....    LDR      sp,__lit__00000000 ; [0x8000198] = 0x20000538
    .ARM.Collect$$$$00000004
    _main_scatterload
        0x0800018c:    f000f896    ....    BL       __scatterload ; 0x80002bc
    .ARM.Collect$$$$00000008
    .ARM.Collect$$$$0000000A
    .ARM.Collect$$$$0000000B
    __main_after_scatterload
    _main_clock
    _main_cpp_init
    _main_init
        0x08000190:    4800        .H      LDR      r0,[pc,#0] ; [0x8000194] = 0x8001f11
        0x08000192:    4700        .G      BX       r0
    $d
        0x08000194:    08001f11    ....    DCD    134225681
    .ARM.Collect$$$$00002712
    __lit__00000000
    .ARM.Collect$$$$0000000D
    .ARM.Collect$$$$0000000F
    __rt_final_cpp
    __rt_final_exit
        0x08000198:    20000538    8..     DCD    536872248
    $t
    .text
    $v0
    Reset_Handler
        0x0800019c:    4810        .H      LDR      r0,[pc,#64] ; [0x80001e0] = 0x8001c19
        0x0800019e:    4780        .G      BLX      r0
        0x080001a0:    4810        .H      LDR      r0,[pc,#64] ; [0x80001e4] = 0x8000189
        0x080001a2:    4700        .G      BX       r0
        0x080001a4:    e7fe        ..      B        0x80001a4 ; Reset_Handler + 8
        0x080001a6:    e7fe        ..      B        0x80001a6 ; Reset_Handler + 10
    HardFault_Handler_asm
        0x080001a8:    f01e0f04    ....    TST      lr,#4
        0x080001ac:    d000        ..      BEQ      0x80001b0 ; HardFault_Handler_asm + 8
        0x080001ae:    d104        ..      BNE      0x80001ba ; HardFault_Handler_asm + 18
        0x080001b0:    e92d0ff0    -...    PUSH     {r4-r11}
        0x080001b4:    b500        ..      PUSH     {lr}
        0x080001b6:    4668        hF      MOV      r0,sp
        0x080001b8:    e006        ..      B        0x80001c8 ; HardFault_Handler_asm + 32
        0x080001ba:    bf08        ..      IT       EQ
        0x080001bc:    f3ef8009    ....    MRSEQ    r0,PSP
        0x080001c0:    e9200ff0     ...    STMDB    r0!,{r4-r11}
        0x080001c4:    f840ed04    @...    STR      lr,[r0,#-4]!
        0x080001c8:    f000f890    ....    BL       DumpCore ; 0x80002ec
        0x080001cc:    e7fe        ..      B        0x80001cc ; HardFault_Handler_asm + 36
        0x080001ce:    e7fe        ..      B        0x80001ce ; HardFault_Handler_asm + 38
        0x080001d0:    e7fe        ..      B        0x80001d0 ; HardFault_Handler_asm + 40
        0x080001d2:    e7fe        ..      B        0x80001d2 ; HardFault_Handler_asm + 42
        0x080001d4:    e7fe        ..      B        0x80001d4 ; HardFault_Handler_asm + 44
        0x080001d6:    e7fe        ..      B        0x80001d6 ; HardFault_Handler_asm + 46
        0x080001d8:    e7fe        ..      B        0x80001d8 ; HardFault_Handler_asm + 48
        0x080001da:    e7fe        ..      B        0x80001da ; HardFault_Handler_asm + 50
    ADC_IRQHandler
    CAN1_RX0_IRQHandler
    CAN1_RX1_IRQHandler
    CAN1_SCE_IRQHandler
    CAN1_TX_IRQHandler
    CAN2_RX0_IRQHandler
    CAN2_RX1_IRQHandler
    CAN2_SCE_IRQHandler
    CAN2_TX_IRQHandler
    DCMI_IRQHandler
    DMA1_Stream0_IRQHandler
    DMA1_Stream1_IRQHandler
    DMA1_Stream2_IRQHandler
    DMA1_Stream3_IRQHandler
    DMA1_Stream4_IRQHandler
    DMA1_Stream5_IRQHandler
    DMA1_Stream6_IRQHandler
    DMA1_Stream7_IRQHandler
    DMA2_Stream0_IRQHandler
    DMA2_Stream1_IRQHandler
    DMA2_Stream2_IRQHandler
    DMA2_Stream3_IRQHandler
    DMA2_Stream4_IRQHandler
    DMA2_Stream5_IRQHandler
    DMA2_Stream6_IRQHandler
    DMA2_Stream7_IRQHandler
    ETH_IRQHandler
    ETH_WKUP_IRQHandler
    EXTI0_IRQHandler
    EXTI15_10_IRQHandler
    EXTI1_IRQHandler
    EXTI2_IRQHandler
    EXTI4_IRQHandler
    EXTI9_5_IRQHandler
    FLASH_IRQHandler
    FMC_IRQHandler
    FPU_IRQHandler
    HASH_RNG_IRQHandler
    I2C1_ER_IRQHandler
    I2C1_EV_IRQHandler
    I2C2_ER_IRQHandler
    I2C2_EV_IRQHandler
    I2C3_ER_IRQHandler
    I2C3_EV_IRQHandler
    OTG_FS_IRQHandler
    OTG_FS_WKUP_IRQHandler
    OTG_HS_EP1_IN_IRQHandler
    OTG_HS_EP1_OUT_IRQHandler
    OTG_HS_IRQHandler
    OTG_HS_WKUP_IRQHandler
    PVD_IRQHandler
    RCC_IRQHandler
    RTC_Alarm_IRQHandler
    RTC_WKUP_IRQHandler
    SDIO_IRQHandler
    SPI1_IRQHandler
    SPI2_IRQHandler
    SPI3_IRQHandler
    TAMP_STAMP_IRQHandler
    TIM1_BRK_TIM9_IRQHandler
    TIM1_CC_IRQHandler
    TIM1_TRG_COM_TIM11_IRQHandler
    TIM1_UP_TIM10_IRQHandler
    TIM2_IRQHandler
    TIM3_IRQHandler
    TIM4_IRQHandler
    TIM5_IRQHandler
    TIM6_DAC_IRQHandler
    TIM7_IRQHandler
    TIM8_BRK_TIM12_IRQHandler
    TIM8_CC_IRQHandler
    TIM8_TRG_COM_TIM14_IRQHandler
    TIM8_UP_TIM13_IRQHandler
    UART4_IRQHandler
    UART5_IRQHandler
    USART1_IRQHandler
    USART2_IRQHandler
    USART3_IRQHandler
    USART6_IRQHandler
    WWDG_IRQHandler
        0x080001dc:    e7fe        ..      B        ADC_IRQHandler ; 0x80001dc
    $d
        0x080001de:    0000        ..      DCW    0
        0x080001e0:    08001c19    ....    DCD    134224921
        0x080001e4:    08000189    ....    DCD    134218121
    $t
    .text
    __aeabi_uldivmod
        0x080001e8:    e92d5ff0    -.._    PUSH     {r4-r12,lr}
        0x080001ec:    4605        .F      MOV      r5,r0
        0x080001ee:    2000        .       MOVS     r0,#0
        0x080001f0:    4692        .F      MOV      r10,r2
        0x080001f2:    469b        .F      MOV      r11,r3
        0x080001f4:    4688        .F      MOV      r8,r1
        0x080001f6:    4606        .F      MOV      r6,r0
        0x080001f8:    4681        .F      MOV      r9,r0
        0x080001fa:    2440        @$      MOVS     r4,#0x40
        0x080001fc:    e01b        ..      B        0x8000236 ; __aeabi_uldivmod + 78
        0x080001fe:    4628        (F      MOV      r0,r5
        0x08000200:    4641        AF      MOV      r1,r8
        0x08000202:    4647        GF      MOV      r7,r8
        0x08000204:    4622        "F      MOV      r2,r4
        0x08000206:    f000f848    ..H.    BL       __aeabi_llsr ; 0x800029a
        0x0800020a:    4653        SF      MOV      r3,r10
        0x0800020c:    465a        ZF      MOV      r2,r11
        0x0800020e:    1ac0        ..      SUBS     r0,r0,r3
        0x08000210:    4191        .A      SBCS     r1,r1,r2
        0x08000212:    d310        ..      BCC      0x8000236 ; __aeabi_uldivmod + 78
        0x08000214:    4611        .F      MOV      r1,r2
        0x08000216:    4618        .F      MOV      r0,r3
        0x08000218:    4622        "F      MOV      r2,r4
        0x0800021a:    f000f82f    ../.    BL       __aeabi_llsl ; 0x800027c
        0x0800021e:    1a2d        -.      SUBS     r5,r5,r0
        0x08000220:    eb670801    g...    SBC      r8,r7,r1
        0x08000224:    464f        OF      MOV      r7,r9
        0x08000226:    4622        "F      MOV      r2,r4
        0x08000228:    2001        .       MOVS     r0,#1
        0x0800022a:    2100        .!      MOVS     r1,#0
        0x0800022c:    f000f826    ..&.    BL       __aeabi_llsl ; 0x800027c
        0x08000230:    eb170900    ....    ADDS     r9,r7,r0
        0x08000234:    414e        NA      ADCS     r6,r6,r1
        0x08000236:    1e20         .      SUBS     r0,r4,#0
        0x08000238:    f1a40401    ....    SUB      r4,r4,#1
        0x0800023c:    dcdf        ..      BGT      0x80001fe ; __aeabi_uldivmod + 22
        0x0800023e:    4648        HF      MOV      r0,r9
        0x08000240:    4631        1F      MOV      r1,r6
        0x08000242:    462a        *F      MOV      r2,r5
        0x08000244:    4643        CF      MOV      r3,r8
        0x08000246:    e8bd9ff0    ....    POP      {r4-r12,pc}
    .text
    __aeabi_memset
    __aeabi_memset4
    __aeabi_memset8
        0x0800024a:    b2d2        ..      UXTB     r2,r2
        0x0800024c:    e001        ..      B        0x8000252 ; __aeabi_memset + 8
        0x0800024e:    f8002b01    ...+    STRB     r2,[r0],#1
        0x08000252:    1e49        I.      SUBS     r1,r1,#1
        0x08000254:    d2fb        ..      BCS      0x800024e ; __aeabi_memset + 4
        0x08000256:    4770        pG      BX       lr
    __aeabi_memclr
    __aeabi_memclr4
    __aeabi_memclr8
        0x08000258:    2200        ."      MOVS     r2,#0
        0x0800025a:    e7f6        ..      B        __aeabi_memset ; 0x800024a
    _memset$wrapper
        0x0800025c:    b510        ..      PUSH     {r4,lr}
        0x0800025e:    4613        .F      MOV      r3,r2
        0x08000260:    460a        .F      MOV      r2,r1
        0x08000262:    4604        .F      MOV      r4,r0
        0x08000264:    4619        .F      MOV      r1,r3
        0x08000266:    f7fffff0    ....    BL       __aeabi_memset ; 0x800024a
        0x0800026a:    4620         F      MOV      r0,r4
        0x0800026c:    bd10        ..      POP      {r4,pc}
    .text
    strlen
        0x0800026e:    1c42        B.      ADDS     r2,r0,#1
        0x08000270:    f8101b01    ....    LDRB     r1,[r0],#1
        0x08000274:    2900        .)      CMP      r1,#0
        0x08000276:    d1fb        ..      BNE      0x8000270 ; strlen + 2
        0x08000278:    1a80        ..      SUBS     r0,r0,r2
        0x0800027a:    4770        pG      BX       lr
    .text
    __aeabi_llsl
    _ll_shift_l
        0x0800027c:    2a20         *      CMP      r2,#0x20
        0x0800027e:    db04        ..      BLT      0x800028a ; __aeabi_llsl + 14
        0x08000280:    3a20         :      SUBS     r2,r2,#0x20
        0x08000282:    fa00f102    ....    LSL      r1,r0,r2
        0x08000286:    2000        .       MOVS     r0,#0
        0x08000288:    4770        pG      BX       lr
        0x0800028a:    4091        .@      LSLS     r1,r1,r2
        0x0800028c:    f1c20320    .. .    RSB      r3,r2,#0x20
        0x08000290:    fa20f303     ...    LSR      r3,r0,r3
        0x08000294:    4319        .C      ORRS     r1,r1,r3
        0x08000296:    4090        .@      LSLS     r0,r0,r2
        0x08000298:    4770        pG      BX       lr
    .text
    __aeabi_llsr
    _ll_ushift_r
        0x0800029a:    2a20         *      CMP      r2,#0x20
        0x0800029c:    db04        ..      BLT      0x80002a8 ; __aeabi_llsr + 14
        0x0800029e:    3a20         :      SUBS     r2,r2,#0x20
        0x080002a0:    fa21f002    !...    LSR      r0,r1,r2
        0x080002a4:    2100        .!      MOVS     r1,#0
        0x080002a6:    4770        pG      BX       lr
        0x080002a8:    fa21f302    !...    LSR      r3,r1,r2
        0x080002ac:    40d0        .@      LSRS     r0,r0,r2
        0x080002ae:    f1c20220    .. .    RSB      r2,r2,#0x20
        0x080002b2:    4091        .@      LSLS     r1,r1,r2
        0x080002b4:    4308        .C      ORRS     r0,r0,r1
        0x080002b6:    4619        .F      MOV      r1,r3
        0x080002b8:    4770        pG      BX       lr
        0x080002ba:    0000        ..      MOVS     r0,r0
    .text
    __scatterload
    __scatterload_rt2
        0x080002bc:    4c06        .L      LDR      r4,[pc,#24] ; [0x80002d8] = 0x8002894
        0x080002be:    4d07        .M      LDR      r5,[pc,#28] ; [0x80002dc] = 0x80028b4
        0x080002c0:    e006        ..      B        0x80002d0 ; __scatterload + 20
        0x080002c2:    68e0        .h      LDR      r0,[r4,#0xc]
        0x080002c4:    f0400301    @...    ORR      r3,r0,#1
        0x080002c8:    e8940007    ....    LDM      r4,{r0-r2}
        0x080002cc:    4798        .G      BLX      r3
        0x080002ce:    3410        .4      ADDS     r4,r4,#0x10
        0x080002d0:    42ac        .B      CMP      r4,r5
        0x080002d2:    d3f6        ..      BCC      0x80002c2 ; __scatterload + 6
        0x080002d4:    f7ffff5c    ..\.    BL       __main_after_scatterload ; 0x8000190
    $d
        0x080002d8:    08002894    .(..    DCD    134228116
        0x080002dc:    080028b4    .(..    DCD    134228148
    $t
    i.AA
    AA
        0x080002e0:    b508        ..      PUSH     {r3,lr}
        0x080002e2:    2001        .       MOVS     r0,#1
        0x080002e4:    9000        ..      STR      r0,[sp,#0]
        0x080002e6:    bd08        ..      POP      {r3,pc}
    i.BusFault_Handler
    BusFault_Handler
        0x080002e8:    e7fe        ..      B        BusFault_Handler ; 0x80002e8
    i.DebugMon_Handler
    DebugMon_Handler
        0x080002ea:    4770        pG      BX       lr
    i.DumpCore
    DumpCore
        0x080002ec:    b510        ..      PUSH     {r4,lr}
        0x080002ee:    4604        .F      MOV      r4,r0
        0x080002f0:    a10d        ..      ADR      r1,{pc}+0x38 ; 0x8000328
        0x080002f2:    f000f86d    ..m.    BL       DumpRegisters ; 0x80003d0
        0x080002f6:    a00f        ..      ADR      r0,{pc}+0x3e ; 0x8000334
        0x080002f8:    f001feb4    ....    BL       myputs ; 0x8002064
        0x080002fc:    4911        .I      LDR      r1,[pc,#68] ; [0x8000344] = 0x28
        0x080002fe:    4812        .H      LDR      r0,[pc,#72] ; [0x8000348] = 0x20000000
        0x08000300:    f000f838    ..8.    BL       DumpMem ; 0x8000374
        0x08000304:    a011        ..      ADR      r0,{pc}+0x48 ; 0x800034c
        0x08000306:    f001fead    ....    BL       myputs ; 0x8002064
        0x0800030a:    4914        .I      LDR      r1,[pc,#80] ; [0x800035c] = 0x510
        0x0800030c:    4814        .H      LDR      r0,[pc,#80] ; [0x8000360] = 0x20000028
        0x0800030e:    f000f831    ..1.    BL       DumpMem ; 0x8000374
        0x08000312:    a014        ..      ADR      r0,{pc}+0x52 ; 0x8000364
        0x08000314:    f001fea6    ....    BL       myputs ; 0x8002064
        0x08000318:    f1040044    ..D.    ADD      r0,r4,#0x44
        0x0800031c:    e8bd4010    ...@    POP      {r4,lr}
        0x08000320:    f44f6180    O..a    MOV      r1,#0x400
        0x08000324:    f000b826    ..&.    B.W      DumpMem ; 0x8000374
    $d
        0x08000328:    6e69616d    main    DCD    1852399981
        0x0800032c:    7268745f    _thr    DCD    1919448159
        0x08000330:    00646165    ead.    DCD    6578533
        0x08000334:    61746144    Data    DCD    1635017028
        0x08000338:    67657320     seg    DCD    1734701856
        0x0800033c:    746e656d    ment    DCD    1953391981
        0x08000340:    00000a3a    :...    DCD    2618
        0x08000344:    00000028    (...    DCD    40
        0x08000348:    20000000    ...     DCD    536870912
        0x0800034c:    7320495a    ZI s    DCD    1931495770
        0x08000350:    656d6765    egme    DCD    1701668709
        0x08000354:    0a3a746e    nt:.    DCD    171603054
        0x08000358:    00000000    ....    DCD    0
        0x0800035c:    00000510    ....    DCD    1296
        0x08000360:    20000028    (..     DCD    536870952
        0x08000364:    63617453    Stac    DCD    1667331155
        0x08000368:    6573206b    k se    DCD    1702043755
        0x0800036c:    6e656d67    gmen    DCD    1852140903
        0x08000370:    000a3a74    t:..    DCD    670324
    $t
    i.DumpMem
    DumpMem
        0x08000374:    b570        p.      PUSH     {r4-r6,lr}
        0x08000376:    4605        .F      MOV      r5,r0
        0x08000378:    460e        .F      MOV      r6,r1
        0x0800037a:    4629        )F      MOV      r1,r5
        0x0800037c:    a00f        ..      ADR      r0,{pc}+0x40 ; 0x80003bc
        0x0800037e:    f001fe47    ..G.    BL       myput_s_hex ; 0x8002010
        0x08000382:    4631        1F      MOV      r1,r6
        0x08000384:    a00f        ..      ADR      r0,{pc}+0x40 ; 0x80003c4
        0x08000386:    f001fe43    ..C.    BL       myput_s_hex ; 0x8002010
        0x0800038a:    a00f        ..      ADR      r0,{pc}+0x3e ; 0x80003c8
        0x0800038c:    f001fe6a    ..j.    BL       myputs ; 0x8002064
        0x08000390:    2400        .$      MOVS     r4,#0
        0x08000392:    e009        ..      B        0x80003a8 ; DumpMem + 52
        0x08000394:    6828        (h      LDR      r0,[r5,#0]
        0x08000396:    f001fe4d    ..M.    BL       myputhex ; 0x8002034
        0x0800039a:    1d24        $.      ADDS     r4,r4,#4
        0x0800039c:    1d2d        -.      ADDS     r5,r5,#4
        0x0800039e:    0720         .      LSLS     r0,r4,#28
        0x080003a0:    d009        ..      BEQ      0x80003b6 ; DumpMem + 66
        0x080003a2:    a00a        ..      ADR      r0,{pc}+0x2a ; 0x80003cc
        0x080003a4:    f001fe5e    ..^.    BL       myputs ; 0x8002064
        0x080003a8:    42b4        .B      CMP      r4,r6
        0x080003aa:    d3f3        ..      BCC      0x8000394 ; DumpMem + 32
        0x080003ac:    e8bd4070    ..p@    POP      {r4-r6,lr}
        0x080003b0:    a005        ..      ADR      r0,{pc}+0x18 ; 0x80003c8
        0x080003b2:    f001be57    ..W.    B.W      myputs ; 0x8002064
        0x080003b6:    a004        ..      ADR      r0,{pc}+0x12 ; 0x80003c8
        0x080003b8:    e7f4        ..      B        0x80003a4 ; DumpMem + 48
    $d
        0x080003ba:    0000        ..      DCW    0
        0x080003bc:    406d656d    mem@    DCD    1080911213
        0x080003c0:    00000000    ....    DCD    0
        0x080003c4:    0000002c    ,...    DCD    44
        0x080003c8:    0000000a    ....    DCD    10
        0x080003cc:    00000020     ...    DCD    32
    $t
    i.DumpRegisters
    DumpRegisters
        0x080003d0:    b570        p.      PUSH     {r4-r6,lr}
        0x080003d2:    4604        .F      MOV      r4,r0
        0x080003d4:    460d        .F      MOV      r5,r1
        0x080003d6:    a041        A.      ADR      r0,{pc}+0x106 ; 0x80004dc
        0x080003d8:    f001fe44    ..D.    BL       myputs ; 0x8002064
        0x080003dc:    4628        (F      MOV      r0,r5
        0x080003de:    f001fe41    ..A.    BL       myputs ; 0x8002064
        0x080003e2:    a041        A.      ADR      r0,{pc}+0x106 ; 0x80004e8
        0x080003e4:    f001fe3e    ..>.    BL       myputs ; 0x8002064
        0x080003e8:    a040        @.      ADR      r0,{pc}+0x104 ; 0x80004ec
        0x080003ea:    6a61        aj      LDR      r1,[r4,#0x24]
        0x080003ec:    f001fe10    ....    BL       myput_s_hex ; 0x8002010
        0x080003f0:    a03d        =.      ADR      r0,{pc}+0xf8 ; 0x80004e8
        0x080003f2:    f001fe37    ..7.    BL       myputs ; 0x8002064
        0x080003f6:    a03f        ?.      ADR      r0,{pc}+0xfe ; 0x80004f4
        0x080003f8:    6aa1        .j      LDR      r1,[r4,#0x28]
        0x080003fa:    f001fe09    ....    BL       myput_s_hex ; 0x8002010
        0x080003fe:    a03a        :.      ADR      r0,{pc}+0xea ; 0x80004e8
        0x08000400:    f001fe30    ..0.    BL       myputs ; 0x8002064
        0x08000404:    a03d        =.      ADR      r0,{pc}+0xf8 ; 0x80004fc
        0x08000406:    6ae1        .j      LDR      r1,[r4,#0x2c]
        0x08000408:    f001fe02    ....    BL       myput_s_hex ; 0x8002010
        0x0800040c:    a036        6.      ADR      r0,{pc}+0xdc ; 0x80004e8
        0x0800040e:    f001fe29    ..).    BL       myputs ; 0x8002064
        0x08000412:    a03c        <.      ADR      r0,{pc}+0xf2 ; 0x8000504
        0x08000414:    6b21        !k      LDR      r1,[r4,#0x30]
        0x08000416:    f001fdfb    ....    BL       myput_s_hex ; 0x8002010
        0x0800041a:    a033        3.      ADR      r0,{pc}+0xce ; 0x80004e8
        0x0800041c:    f001fe22    ..".    BL       myputs ; 0x8002064
        0x08000420:    a03a        :.      ADR      r0,{pc}+0xec ; 0x800050c
        0x08000422:    6861        ah      LDR      r1,[r4,#4]
        0x08000424:    f001fdf4    ....    BL       myput_s_hex ; 0x8002010
        0x08000428:    a02f        /.      ADR      r0,{pc}+0xc0 ; 0x80004e8
        0x0800042a:    f001fe1b    ....    BL       myputs ; 0x8002064
        0x0800042e:    a039        9.      ADR      r0,{pc}+0xe6 ; 0x8000514
        0x08000430:    68a1        .h      LDR      r1,[r4,#8]
        0x08000432:    f001fded    ....    BL       myput_s_hex ; 0x8002010
        0x08000436:    a02c        ,.      ADR      r0,{pc}+0xb2 ; 0x80004e8
        0x08000438:    f001fe14    ....    BL       myputs ; 0x8002064
        0x0800043c:    a037        7.      ADR      r0,{pc}+0xe0 ; 0x800051c
        0x0800043e:    68e1        .h      LDR      r1,[r4,#0xc]
        0x08000440:    f001fde6    ....    BL       myput_s_hex ; 0x8002010
        0x08000444:    a028        (.      ADR      r0,{pc}+0xa4 ; 0x80004e8
        0x08000446:    f001fe0d    ....    BL       myputs ; 0x8002064
        0x0800044a:    a036        6.      ADR      r0,{pc}+0xda ; 0x8000524
        0x0800044c:    6921        !i      LDR      r1,[r4,#0x10]
        0x0800044e:    f001fddf    ....    BL       myput_s_hex ; 0x8002010
        0x08000452:    a025        %.      ADR      r0,{pc}+0x96 ; 0x80004e8
        0x08000454:    f001fe06    ....    BL       myputs ; 0x8002064
        0x08000458:    a034        4.      ADR      r0,{pc}+0xd4 ; 0x800052c
        0x0800045a:    6961        ai      LDR      r1,[r4,#0x14]
        0x0800045c:    f001fdd8    ....    BL       myput_s_hex ; 0x8002010
        0x08000460:    a021        !.      ADR      r0,{pc}+0x88 ; 0x80004e8
        0x08000462:    f001fdff    ....    BL       myputs ; 0x8002064
        0x08000466:    a033        3.      ADR      r0,{pc}+0xce ; 0x8000534
        0x08000468:    69a1        .i      LDR      r1,[r4,#0x18]
        0x0800046a:    f001fdd1    ....    BL       myput_s_hex ; 0x8002010
        0x0800046e:    a01e        ..      ADR      r0,{pc}+0x7a ; 0x80004e8
        0x08000470:    f001fdf8    ....    BL       myputs ; 0x8002064
        0x08000474:    a031        1.      ADR      r0,{pc}+0xc8 ; 0x800053c
        0x08000476:    69e1        .i      LDR      r1,[r4,#0x1c]
        0x08000478:    f001fdca    ....    BL       myput_s_hex ; 0x8002010
        0x0800047c:    a01a        ..      ADR      r0,{pc}+0x6c ; 0x80004e8
        0x0800047e:    f001fdf1    ....    BL       myputs ; 0x8002064
        0x08000482:    a030        0.      ADR      r0,{pc}+0xc2 ; 0x8000544
        0x08000484:    6a21        !j      LDR      r1,[r4,#0x20]
        0x08000486:    f001fdc3    ....    BL       myput_s_hex ; 0x8002010
        0x0800048a:    a017        ..      ADR      r0,{pc}+0x5e ; 0x80004e8
        0x0800048c:    f001fdea    ....    BL       myputs ; 0x8002064
        0x08000490:    a02e        ..      ADR      r0,{pc}+0xbc ; 0x800054c
        0x08000492:    6b61        ak      LDR      r1,[r4,#0x34]
        0x08000494:    f001fdbc    ....    BL       myput_s_hex ; 0x8002010
        0x08000498:    a013        ..      ADR      r0,{pc}+0x50 ; 0x80004e8
        0x0800049a:    f001fde3    ....    BL       myputs ; 0x8002064
        0x0800049e:    f1040144    ..D.    ADD      r1,r4,#0x44
        0x080004a2:    a02c        ,.      ADR      r0,{pc}+0xb2 ; 0x8000554
        0x080004a4:    f001fdb4    ....    BL       myput_s_hex ; 0x8002010
        0x080004a8:    a00f        ..      ADR      r0,{pc}+0x40 ; 0x80004e8
        0x080004aa:    f001fddb    ....    BL       myputs ; 0x8002064
        0x080004ae:    a02c        ,.      ADR      r0,{pc}+0xb2 ; 0x8000560
        0x080004b0:    6ba1        .k      LDR      r1,[r4,#0x38]
        0x080004b2:    f001fdad    ....    BL       myput_s_hex ; 0x8002010
        0x080004b6:    a00c        ..      ADR      r0,{pc}+0x32 ; 0x80004e8
        0x080004b8:    f001fdd4    ....    BL       myputs ; 0x8002064
        0x080004bc:    a02b        +.      ADR      r0,{pc}+0xb0 ; 0x800056c
        0x080004be:    6be1        .k      LDR      r1,[r4,#0x3c]
        0x080004c0:    f001fda6    ....    BL       myput_s_hex ; 0x8002010
        0x080004c4:    a008        ..      ADR      r0,{pc}+0x24 ; 0x80004e8
        0x080004c6:    f001fdcd    ....    BL       myputs ; 0x8002064
        0x080004ca:    a02b        +.      ADR      r0,{pc}+0xae ; 0x8000578
        0x080004cc:    6c21        !l      LDR      r1,[r4,#0x40]
        0x080004ce:    f001fd9f    ....    BL       myput_s_hex ; 0x8002010
        0x080004d2:    e8bd4070    ..p@    POP      {r4-r6,lr}
        0x080004d6:    a004        ..      ADR      r0,{pc}+0x12 ; 0x80004e8
        0x080004d8:    f001bdc4    ....    B.W      myputs ; 0x8002064
    $d
        0x080004dc:    69676552    Regi    DCD    1768383826
        0x080004e0:    72657473    ster    DCD    1919251571
        0x080004e4:    00004073    s@..    DCD    16499
        0x080004e8:    0000000a    ....    DCD    10
        0x080004ec:    203a3052    R0:     DCD    540684370
        0x080004f0:    00000000    ....    DCD    0
        0x080004f4:    203a3152    R1:     DCD    540684626
        0x080004f8:    00000000    ....    DCD    0
        0x080004fc:    203a3252    R2:     DCD    540684882
        0x08000500:    00000000    ....    DCD    0
        0x08000504:    203a3352    R3:     DCD    540685138
        0x08000508:    00000000    ....    DCD    0
        0x0800050c:    203a3452    R4:     DCD    540685394
        0x08000510:    00000000    ....    DCD    0
        0x08000514:    203a3552    R5:     DCD    540685650
        0x08000518:    00000000    ....    DCD    0
        0x0800051c:    203a3652    R6:     DCD    540685906
        0x08000520:    00000000    ....    DCD    0
        0x08000524:    203a3752    R7:     DCD    540686162
        0x08000528:    00000000    ....    DCD    0
        0x0800052c:    203a3852    R8:     DCD    540686418
        0x08000530:    00000000    ....    DCD    0
        0x08000534:    203a3952    R9:     DCD    540686674
        0x08000538:    00000000    ....    DCD    0
        0x0800053c:    3a303152    R10:    DCD    976236882
        0x08000540:    00000020     ...    DCD    32
        0x08000544:    3a313152    R11:    DCD    976302418
        0x08000548:    00000020     ...    DCD    32
        0x0800054c:    3a323152    R12:    DCD    976367954
        0x08000550:    00000020     ...    DCD    32
        0x08000554:    28333152    R13(    DCD    674443602
        0x08000558:    3a295053    SP):    DCD    975786067
        0x0800055c:    00000020     ...    DCD    32
        0x08000560:    28343152    R14(    DCD    674509138
        0x08000564:    3a29524c    LR):    DCD    975786572
        0x08000568:    00000020     ...    DCD    32
        0x0800056c:    28353152    R15(    DCD    674574674
        0x08000570:    3a294350    PC):    DCD    975782736
        0x08000574:    00000020     ...    DCD    32
        0x08000578:    52535078    xPSR    DCD    1381191800
        0x0800057c:    0000203a    : ..    DCD    8250
    $t
    i.EXTI3_IRQHandler
    EXTI3_IRQHandler
        0x08000580:    2008        .       MOVS     r0,#8
        0x08000582:    f000b817    ....    B.W      HAL_GPIO_EXTI_IRQHandler ; 0x80005b4
        0x08000586:    0000        ..      MOVS     r0,r0
    i.EnableDiv0Bug
    EnableDiv0Bug
        0x08000588:    4802        .H      LDR      r0,[pc,#8] ; [0x8000594] = 0xe000ed14
        0x0800058a:    6801        .h      LDR      r1,[r0,#0]
        0x0800058c:    f0410110    A...    ORR      r1,r1,#0x10
        0x08000590:    6001        .`      STR      r1,[r0,#0]
        0x08000592:    4770        pG      BX       lr
    $d
        0x08000594:    e000ed14    ....    DCD    3758157076
    $t
    i.Error_Handler
    Error_Handler
        0x08000598:    b672        r.      CPSID    i
        0x0800059a:    e7fe        ..      B        0x800059a ; Error_Handler + 2
    i.HAL_GPIO_EXTI_Callback
    HAL_GPIO_EXTI_Callback
        0x0800059c:    b510        ..      PUSH     {r4,lr}
        0x0800059e:    2808        .(      CMP      r0,#8
        0x080005a0:    d104        ..      BNE      0x80005ac ; HAL_GPIO_EXTI_Callback + 16
        0x080005a2:    f000f915    ....    BL       HAL_GetTick ; 0x80007d0
        0x080005a6:    4902        .I      LDR      r1,[pc,#8] ; [0x80005b0] = 0x20000004
        0x080005a8:    300a        .0      ADDS     r0,r0,#0xa
        0x080005aa:    6008        .`      STR      r0,[r1,#0]
        0x080005ac:    bd10        ..      POP      {r4,pc}
    $d
        0x080005ae:    0000        ..      DCW    0
        0x080005b0:    20000004    ...     DCD    536870916
    $t
    i.HAL_GPIO_EXTI_IRQHandler
    HAL_GPIO_EXTI_IRQHandler
        0x080005b4:    4904        .I      LDR      r1,[pc,#16] ; [0x80005c8] = 0x40013c14
        0x080005b6:    b510        ..      PUSH     {r4,lr}
        0x080005b8:    680a        .h      LDR      r2,[r1,#0]
        0x080005ba:    4202        .B      TST      r2,r0
        0x080005bc:    d002        ..      BEQ      0x80005c4 ; HAL_GPIO_EXTI_IRQHandler + 16
        0x080005be:    6008        .`      STR      r0,[r1,#0]
        0x080005c0:    f7ffffec    ....    BL       HAL_GPIO_EXTI_Callback ; 0x800059c
        0x080005c4:    bd10        ..      POP      {r4,pc}
    $d
        0x080005c6:    0000        ..      DCW    0
        0x080005c8:    40013c14    .<.@    DCD    1073822740
    $t
    i.HAL_GPIO_Init
    HAL_GPIO_Init
        0x080005cc:    e92d4ff8    -..O    PUSH     {r3-r11,lr}
        0x080005d0:    f8dfa1bc    ....    LDR      r10,[pc,#444] ; [0x8000790] = 0x40013c08
        0x080005d4:    2200        ."      MOVS     r2,#0
        0x080005d6:    2501        .%      MOVS     r5,#1
        0x080005d8:    2603        .&      MOVS     r6,#3
        0x080005da:    f04f090f    O...    MOV      r9,#0xf
        0x080005de:    f10a0b04    ....    ADD      r11,r10,#4
        0x080005e2:    f1aa0e04    ....    SUB      lr,r10,#4
        0x080005e6:    bf00        ..      NOP      
        0x080005e8:    680b        .h      LDR      r3,[r1,#0]
        0x080005ea:    fa05f402    ....    LSL      r4,r5,r2
        0x080005ee:    4023        #@      ANDS     r3,r3,r4
        0x080005f0:    42a3        .B      CMP      r3,r4
        0x080005f2:    d170        p.      BNE      0x80006d6 ; HAL_GPIO_Init + 266
        0x080005f4:    790f        .y      LDRB     r7,[r1,#4]
        0x080005f6:    f0070703    ....    AND      r7,r7,#3
        0x080005fa:    2f01        ./      CMP      r7,#1
        0x080005fc:    d001        ..      BEQ      0x8000602 ; HAL_GPIO_Init + 54
        0x080005fe:    2f02        ./      CMP      r7,#2
        0x08000600:    d116        ..      BNE      0x8000630 ; HAL_GPIO_Init + 100
        0x08000602:    6887        .h      LDR      r7,[r0,#8]
        0x08000604:    ea4f0842    O.B.    LSL      r8,r2,#1
        0x08000608:    fa06fc08    ....    LSL      r12,r6,r8
        0x0800060c:    ea27070c    '...    BIC      r7,r7,r12
        0x08000610:    f8d1c00c    ....    LDR      r12,[r1,#0xc]
        0x08000614:    fa0cfc08    ....    LSL      r12,r12,r8
        0x08000618:    ea4c0c07    L...    ORR      r12,r12,r7
        0x0800061c:    f8c0c008    ....    STR      r12,[r0,#8]
        0x08000620:    6847        Gh      LDR      r7,[r0,#4]
        0x08000622:    43a7        .C      BICS     r7,r7,r4
        0x08000624:    790c        .y      LDRB     r4,[r1,#4]
        0x08000626:    f3c41400    ....    UBFX     r4,r4,#4,#1
        0x0800062a:    4094        .@      LSLS     r4,r4,r2
        0x0800062c:    433c        <C      ORRS     r4,r4,r7
        0x0800062e:    6044        D`      STR      r4,[r0,#4]
        0x08000630:    790c        .y      LDRB     r4,[r1,#4]
        0x08000632:    43e4        .C      MVNS     r4,r4
        0x08000634:    07a4        ..      LSLS     r4,r4,#30
        0x08000636:    d00a        ..      BEQ      0x800064e ; HAL_GPIO_Init + 130
        0x08000638:    68c4        .h      LDR      r4,[r0,#0xc]
        0x0800063a:    ea4f0c42    O.B.    LSL      r12,r2,#1
        0x0800063e:    fa06f70c    ....    LSL      r7,r6,r12
        0x08000642:    43bc        .C      BICS     r4,r4,r7
        0x08000644:    688f        .h      LDR      r7,[r1,#8]
        0x08000646:    fa07f70c    ....    LSL      r7,r7,r12
        0x0800064a:    4327        'C      ORRS     r7,r7,r4
        0x0800064c:    60c7        .`      STR      r7,[r0,#0xc]
        0x0800064e:    790c        .y      LDRB     r4,[r1,#4]
        0x08000650:    f0040403    ....    AND      r4,r4,#3
        0x08000654:    2c02        .,      CMP      r4,#2
        0x08000656:    d112        ..      BNE      0x800067e ; HAL_GPIO_Init + 178
        0x08000658:    08d4        ..      LSRS     r4,r2,#3
        0x0800065a:    eb000c84    ....    ADD      r12,r0,r4,LSL #2
        0x0800065e:    f8dc4020    .. @    LDR      r4,[r12,#0x20]
        0x08000662:    0757        W.      LSLS     r7,r2,#29
        0x08000664:    0eff        ..      LSRS     r7,r7,#27
        0x08000666:    fa09f807    ....    LSL      r8,r9,r7
        0x0800066a:    ea240408    $...    BIC      r4,r4,r8
        0x0800066e:    f8d18010    ....    LDR      r8,[r1,#0x10]
        0x08000672:    fa08f807    ....    LSL      r8,r8,r7
        0x08000676:    ea480804    H...    ORR      r8,r8,r4
        0x0800067a:    f8cc8020    .. .    STR      r8,[r12,#0x20]
        0x0800067e:    6804        .h      LDR      r4,[r0,#0]
        0x08000680:    ea4f0c42    O.B.    LSL      r12,r2,#1
        0x08000684:    fa06f70c    ....    LSL      r7,r6,r12
        0x08000688:    43bc        .C      BICS     r4,r4,r7
        0x0800068a:    790f        .y      LDRB     r7,[r1,#4]
        0x0800068c:    f0070703    ....    AND      r7,r7,#3
        0x08000690:    fa07f70c    ....    LSL      r7,r7,r12
        0x08000694:    4327        'C      ORRS     r7,r7,r4
        0x08000696:    6007        .`      STR      r7,[r0,#0]
        0x08000698:    684c        Lh      LDR      r4,[r1,#4]
        0x0800069a:    f4143f40    ..@?    TST      r4,#0x30000
        0x0800069e:    d070        p.      BEQ      0x8000782 ; HAL_GPIO_Init + 438
        0x080006a0:    4c3c        <L      LDR      r4,[pc,#240] ; [0x8000794] = 0x40023844
        0x080006a2:    6827        'h      LDR      r7,[r4,#0]
        0x080006a4:    f4474780    G..G    ORR      r7,r7,#0x4000
        0x080006a8:    6027        '`      STR      r7,[r4,#0]
        0x080006aa:    6824        $h      LDR      r4,[r4,#0]
        0x080006ac:    f0220703    "...    BIC      r7,r2,#3
        0x080006b0:    f4044480    ...D    AND      r4,r4,#0x4000
        0x080006b4:    9400        ..      STR      r4,[sp,#0]
        0x080006b6:    4c38        8L      LDR      r4,[pc,#224] ; [0x8000798] = 0x40013000
        0x080006b8:    eb070c04    ....    ADD      r12,r7,r4
        0x080006bc:    f8dc4808    ...H    LDR      r4,[r12,#0x808]
        0x080006c0:    0797        ..      LSLS     r7,r2,#30
        0x080006c2:    ea4f7817    O..x    LSR      r8,r7,#28
        0x080006c6:    fa09f708    ....    LSL      r7,r9,r8
        0x080006ca:    43bc        .C      BICS     r4,r4,r7
        0x080006cc:    4f33        3O      LDR      r7,[pc,#204] ; [0x800079c] = 0x40020000
        0x080006ce:    42b8        .B      CMP      r0,r7
        0x080006d0:    d102        ..      BNE      0x80006d8 ; HAL_GPIO_Init + 268
        0x080006d2:    2700        .'      MOVS     r7,#0
        0x080006d4:    e024        $.      B        0x8000720 ; HAL_GPIO_Init + 340
        0x080006d6:    e054        T.      B        0x8000782 ; HAL_GPIO_Init + 438
        0x080006d8:    4f31        1O      LDR      r7,[pc,#196] ; [0x80007a0] = 0x40020400
        0x080006da:    42b8        .B      CMP      r0,r7
        0x080006dc:    d101        ..      BNE      0x80006e2 ; HAL_GPIO_Init + 278
        0x080006de:    2701        .'      MOVS     r7,#1
        0x080006e0:    e01e        ..      B        0x8000720 ; HAL_GPIO_Init + 340
        0x080006e2:    4f30        0O      LDR      r7,[pc,#192] ; [0x80007a4] = 0x40020800
        0x080006e4:    42b8        .B      CMP      r0,r7
        0x080006e6:    d101        ..      BNE      0x80006ec ; HAL_GPIO_Init + 288
        0x080006e8:    2702        .'      MOVS     r7,#2
        0x080006ea:    e019        ..      B        0x8000720 ; HAL_GPIO_Init + 340
        0x080006ec:    4f2e        .O      LDR      r7,[pc,#184] ; [0x80007a8] = 0x40020c00
        0x080006ee:    42b8        .B      CMP      r0,r7
        0x080006f0:    d101        ..      BNE      0x80006f6 ; HAL_GPIO_Init + 298
        0x080006f2:    2703        .'      MOVS     r7,#3
        0x080006f4:    e014        ..      B        0x8000720 ; HAL_GPIO_Init + 340
        0x080006f6:    4f2d        -O      LDR      r7,[pc,#180] ; [0x80007ac] = 0x40021000
        0x080006f8:    42b8        .B      CMP      r0,r7
        0x080006fa:    d101        ..      BNE      0x8000700 ; HAL_GPIO_Init + 308
        0x080006fc:    2704        .'      MOVS     r7,#4
        0x080006fe:    e00f        ..      B        0x8000720 ; HAL_GPIO_Init + 340
        0x08000700:    4f2b        +O      LDR      r7,[pc,#172] ; [0x80007b0] = 0x40021400
        0x08000702:    42b8        .B      CMP      r0,r7
        0x08000704:    d101        ..      BNE      0x800070a ; HAL_GPIO_Init + 318
        0x08000706:    2705        .'      MOVS     r7,#5
        0x08000708:    e00a        ..      B        0x8000720 ; HAL_GPIO_Init + 340
        0x0800070a:    4f2a        *O      LDR      r7,[pc,#168] ; [0x80007b4] = 0x40021800
        0x0800070c:    42b8        .B      CMP      r0,r7
        0x0800070e:    d101        ..      BNE      0x8000714 ; HAL_GPIO_Init + 328
        0x08000710:    2706        .'      MOVS     r7,#6
        0x08000712:    e005        ..      B        0x8000720 ; HAL_GPIO_Init + 340
        0x08000714:    4f28        (O      LDR      r7,[pc,#160] ; [0x80007b8] = 0x40021c00
        0x08000716:    42b8        .B      CMP      r0,r7
        0x08000718:    d101        ..      BNE      0x800071e ; HAL_GPIO_Init + 338
        0x0800071a:    2707        .'      MOVS     r7,#7
        0x0800071c:    e000        ..      B        0x8000720 ; HAL_GPIO_Init + 340
        0x0800071e:    2708        .'      MOVS     r7,#8
        0x08000720:    fa07f708    ....    LSL      r7,r7,r8
        0x08000724:    4327        'C      ORRS     r7,r7,r4
        0x08000726:    f8cc7808    ...x    STR      r7,[r12,#0x808]
        0x0800072a:    f8da4000    ...@    LDR      r4,[r10,#0]
        0x0800072e:    4657        WF      MOV      r7,r10
        0x08000730:    f8d1c004    ....    LDR      r12,[r1,#4]
        0x08000734:    439c        .C      BICS     r4,r4,r3
        0x08000736:    ea5f2ccc    _..,    LSLS     r12,r12,#11
        0x0800073a:    d500        ..      BPL      0x800073e ; HAL_GPIO_Init + 370
        0x0800073c:    431c        .C      ORRS     r4,r4,r3
        0x0800073e:    603c        <`      STR      r4,[r7,#0]
        0x08000740:    f8db4000    ...@    LDR      r4,[r11,#0]
        0x08000744:    465f        _F      MOV      r7,r11
        0x08000746:    f8d1c004    ....    LDR      r12,[r1,#4]
        0x0800074a:    439c        .C      BICS     r4,r4,r3
        0x0800074c:    ea5f2c8c    _..,    LSLS     r12,r12,#10
        0x08000750:    d500        ..      BPL      0x8000754 ; HAL_GPIO_Init + 392
        0x08000752:    431c        .C      ORRS     r4,r4,r3
        0x08000754:    603c        <`      STR      r4,[r7,#0]
        0x08000756:    f8de4000    ...@    LDR      r4,[lr,#0]
        0x0800075a:    4677        wF      MOV      r7,lr
        0x0800075c:    f8d1c004    ....    LDR      r12,[r1,#4]
        0x08000760:    439c        .C      BICS     r4,r4,r3
        0x08000762:    ea5f3c8c    _..<    LSLS     r12,r12,#14
        0x08000766:    d500        ..      BPL      0x800076a ; HAL_GPIO_Init + 414
        0x08000768:    431c        .C      ORRS     r4,r4,r3
        0x0800076a:    603c        <`      STR      r4,[r7,#0]
        0x0800076c:    4f08        .O      LDR      r7,[pc,#32] ; [0x8000790] = 0x40013c08
        0x0800076e:    3f08        .?      SUBS     r7,r7,#8
        0x08000770:    683c        <h      LDR      r4,[r7,#0]
        0x08000772:    f8d1c004    ....    LDR      r12,[r1,#4]
        0x08000776:    439c        .C      BICS     r4,r4,r3
        0x08000778:    ea5f3ccc    _..<    LSLS     r12,r12,#15
        0x0800077c:    d500        ..      BPL      0x8000780 ; HAL_GPIO_Init + 436
        0x0800077e:    431c        .C      ORRS     r4,r4,r3
        0x08000780:    603c        <`      STR      r4,[r7,#0]
        0x08000782:    1c52        R.      ADDS     r2,r2,#1
        0x08000784:    2a10        .*      CMP      r2,#0x10
        0x08000786:    f4ffaf2f    ../.    BCC      0x80005e8 ; HAL_GPIO_Init + 28
        0x0800078a:    e8bd8ff8    ....    POP      {r3-r11,pc}
    $d
        0x0800078e:    0000        ..      DCW    0
        0x08000790:    40013c08    .<.@    DCD    1073822728
        0x08000794:    40023844    D8.@    DCD    1073887300
        0x08000798:    40013000    .0.@    DCD    1073819648
        0x0800079c:    40020000    ...@    DCD    1073872896
        0x080007a0:    40020400    ...@    DCD    1073873920
        0x080007a4:    40020800    ...@    DCD    1073874944
        0x080007a8:    40020c00    ...@    DCD    1073875968
        0x080007ac:    40021000    ...@    DCD    1073876992
        0x080007b0:    40021400    ...@    DCD    1073878016
        0x080007b4:    40021800    ...@    DCD    1073879040
        0x080007b8:    40021c00    ...@    DCD    1073880064
    $t
    i.HAL_GPIO_ReadPin
    HAL_GPIO_ReadPin
        0x080007bc:    6900        .i      LDR      r0,[r0,#0x10]
        0x080007be:    4008        .@      ANDS     r0,r0,r1
        0x080007c0:    d000        ..      BEQ      0x80007c4 ; HAL_GPIO_ReadPin + 8
        0x080007c2:    2001        .       MOVS     r0,#1
        0x080007c4:    4770        pG      BX       lr
    i.HAL_GPIO_WritePin
    HAL_GPIO_WritePin
        0x080007c6:    b10a        ..      CBZ      r2,0x80007cc ; HAL_GPIO_WritePin + 6
        0x080007c8:    6181        .a      STR      r1,[r0,#0x18]
        0x080007ca:    4770        pG      BX       lr
        0x080007cc:    0409        ..      LSLS     r1,r1,#16
        0x080007ce:    e7fb        ..      B        0x80007c8 ; HAL_GPIO_WritePin + 2
    i.HAL_GetTick
    HAL_GetTick
        0x080007d0:    4801        .H      LDR      r0,[pc,#4] ; [0x80007d8] = 0x20000010
        0x080007d2:    6880        .h      LDR      r0,[r0,#8]
        0x080007d4:    4770        pG      BX       lr
    $d
        0x080007d6:    0000        ..      DCW    0
        0x080007d8:    20000010    ...     DCD    536870928
    $t
    i.HAL_I2C_Init
    HAL_I2C_Init
        0x080007dc:    b570        p.      PUSH     {r4-r6,lr}
        0x080007de:    0004        ..      MOVS     r4,r0
        0x080007e0:    d025        %.      BEQ      0x800082e ; HAL_I2C_Init + 82
        0x080007e2:    f894003d    ..=.    LDRB     r0,[r4,#0x3d]
        0x080007e6:    2500        .%      MOVS     r5,#0
        0x080007e8:    b920         .      CBNZ     r0,0x80007f4 ; HAL_I2C_Init + 24
        0x080007ea:    f884503c    ..<P    STRB     r5,[r4,#0x3c]
        0x080007ee:    4620         F      MOV      r0,r4
        0x080007f0:    f000f9e6    ....    BL       HAL_I2C_MspInit ; 0x8000bc0
        0x080007f4:    2024        $       MOVS     r0,#0x24
        0x080007f6:    f884003d    ..=.    STRB     r0,[r4,#0x3d]
        0x080007fa:    6820         h      LDR      r0,[r4,#0]
        0x080007fc:    6801        .h      LDR      r1,[r0,#0]
        0x080007fe:    f0210101    !...    BIC      r1,r1,#1
        0x08000802:    6001        .`      STR      r1,[r0,#0]
        0x08000804:    6820         h      LDR      r0,[r4,#0]
        0x08000806:    6801        .h      LDR      r1,[r0,#0]
        0x08000808:    f4414100    A..A    ORR      r1,r1,#0x8000
        0x0800080c:    6001        .`      STR      r1,[r0,#0]
        0x0800080e:    6820         h      LDR      r0,[r4,#0]
        0x08000810:    6801        .h      LDR      r1,[r0,#0]
        0x08000812:    f4214100    !..A    BIC      r1,r1,#0x8000
        0x08000816:    6001        .`      STR      r1,[r0,#0]
        0x08000818:    f000fb3c    ..<.    BL       HAL_RCC_GetPCLK1Freq ; 0x8000e94
        0x0800081c:    4a4d        MJ      LDR      r2,[pc,#308] ; [0x8000954] = 0x186a0
        0x0800081e:    6861        ah      LDR      r1,[r4,#4]
        0x08000820:    4291        .B      CMP      r1,r2
        0x08000822:    d801        ..      BHI      0x8000828 ; HAL_I2C_Init + 76
        0x08000824:    494c        LI      LDR      r1,[pc,#304] ; [0x8000958] = 0x1e8480
        0x08000826:    e000        ..      B        0x800082a ; HAL_I2C_Init + 78
        0x08000828:    494c        LI      LDR      r1,[pc,#304] ; [0x800095c] = 0x3d0900
        0x0800082a:    4288        .B      CMP      r0,r1
        0x0800082c:    d201        ..      BCS      0x8000832 ; HAL_I2C_Init + 86
        0x0800082e:    2001        .       MOVS     r0,#1
        0x08000830:    bd70        p.      POP      {r4-r6,pc}
        0x08000832:    494b        KI      LDR      r1,[pc,#300] ; [0x8000960] = 0xf4240
        0x08000834:    6823        #h      LDR      r3,[r4,#0]
        0x08000836:    fbb0f1f1    ....    UDIV     r1,r0,r1
        0x0800083a:    685e        ^h      LDR      r6,[r3,#4]
        0x0800083c:    f026063f    &.?.    BIC      r6,r6,#0x3f
        0x08000840:    430e        .C      ORRS     r6,r6,r1
        0x08000842:    605e        ^`      STR      r6,[r3,#4]
        0x08000844:    6863        ch      LDR      r3,[r4,#4]
        0x08000846:    4293        .B      CMP      r3,r2
        0x08000848:    d906        ..      BLS      0x8000858 ; HAL_I2C_Init + 124
        0x0800084a:    f44f7396    O..s    MOV      r3,#0x12c
        0x0800084e:    4359        YC      MULS     r1,r3,r1
        0x08000850:    f44f737a    O.zs    MOV      r3,#0x3e8
        0x08000854:    fbb1f1f3    ....    UDIV     r1,r1,r3
        0x08000858:    6823        #h      LDR      r3,[r4,#0]
        0x0800085a:    1c49        I.      ADDS     r1,r1,#1
        0x0800085c:    6a1e        .j      LDR      r6,[r3,#0x20]
        0x0800085e:    f026063f    &.?.    BIC      r6,r6,#0x3f
        0x08000862:    4331        1C      ORRS     r1,r1,r6
        0x08000864:    6219        .b      STR      r1,[r3,#0x20]
        0x08000866:    6861        ah      LDR      r1,[r4,#4]
        0x08000868:    4291        .B      CMP      r1,r2
        0x0800086a:    d810        ..      BHI      0x800088e ; HAL_I2C_Init + 178
        0x0800086c:    0049        I.      LSLS     r1,r1,#1
        0x0800086e:    1e40        @.      SUBS     r0,r0,#1
        0x08000870:    fbb0f2f1    ....    UDIV     r2,r0,r1
        0x08000874:    1c52        R.      ADDS     r2,r2,#1
        0x08000876:    f3c2020b    ....    UBFX     r2,r2,#0,#12
        0x0800087a:    2a04        .*      CMP      r2,#4
        0x0800087c:    d201        ..      BCS      0x8000882 ; HAL_I2C_Init + 166
        0x0800087e:    2004        .       MOVS     r0,#4
        0x08000880:    e022        ".      B        0x80008c8 ; HAL_I2C_Init + 236
        0x08000882:    fbb0f0f1    ....    UDIV     r0,r0,r1
        0x08000886:    1c40        @.      ADDS     r0,r0,#1
        0x08000888:    f3c0000b    ....    UBFX     r0,r0,#0,#12
        0x0800088c:    e01c        ..      B        0x80008c8 ; HAL_I2C_Init + 236
        0x0800088e:    68a2        .h      LDR      r2,[r4,#8]
        0x08000890:    b3f2        ..      CBZ      r2,0x8000910 ; HAL_I2C_Init + 308
        0x08000892:    eb0103c1    ....    ADD      r3,r1,r1,LSL #3
        0x08000896:    eb031601    ....    ADD      r6,r3,r1,LSL #4
        0x0800089a:    1e43        C.      SUBS     r3,r0,#1
        0x0800089c:    fbb3f3f6    ....    UDIV     r3,r3,r6
        0x080008a0:    1c5b        [.      ADDS     r3,r3,#1
        0x080008a2:    f4434380    C..C    ORR      r3,r3,#0x4000
        0x080008a6:    051b        ..      LSLS     r3,r3,#20
        0x080008a8:    d049        I.      BEQ      0x800093e ; HAL_I2C_Init + 354
        0x080008aa:    b392        ..      CBZ      r2,0x8000912 ; HAL_I2C_Init + 310
        0x080008ac:    eb0102c1    ....    ADD      r2,r1,r1,LSL #3
        0x080008b0:    eb021101    ....    ADD      r1,r2,r1,LSL #4
        0x080008b4:    1e40        @.      SUBS     r0,r0,#1
        0x080008b6:    fbb0f0f1    ....    UDIV     r0,r0,r1
        0x080008ba:    1c40        @.      ADDS     r0,r0,#1
        0x080008bc:    f3c0000b    ....    UBFX     r0,r0,#0,#12
        0x080008c0:    f4404080    @..@    ORR      r0,r0,#0x4000
        0x080008c4:    f4404000    @..@    ORR      r0,r0,#0x8000
        0x080008c8:    6821        !h      LDR      r1,[r4,#0]
        0x080008ca:    69ca        .i      LDR      r2,[r1,#0x1c]
        0x080008cc:    f64c73ff    L..s    MOV      r3,#0xcfff
        0x080008d0:    439a        .C      BICS     r2,r2,r3
        0x080008d2:    4310        .C      ORRS     r0,r0,r2
        0x080008d4:    61c8        .a      STR      r0,[r1,#0x1c]
        0x080008d6:    e9d41007    ....    LDRD     r1,r0,[r4,#0x1c]
        0x080008da:    4301        .C      ORRS     r1,r1,r0
        0x080008dc:    6820         h      LDR      r0,[r4,#0]
        0x080008de:    6802        .h      LDR      r2,[r0,#0]
        0x080008e0:    f02202c0    "...    BIC      r2,r2,#0xc0
        0x080008e4:    4311        .C      ORRS     r1,r1,r2
        0x080008e6:    6001        .`      STR      r1,[r0,#0]
        0x080008e8:    e9d40103    ....    LDRD     r0,r1,[r4,#0xc]
        0x080008ec:    4301        .C      ORRS     r1,r1,r0
        0x080008ee:    6820         h      LDR      r0,[r4,#0]
        0x080008f0:    6882        .h      LDR      r2,[r0,#8]
        0x080008f2:    f24833ff    H..3    MOV      r3,#0x83ff
        0x080008f6:    439a        .C      BICS     r2,r2,r3
        0x080008f8:    4311        .C      ORRS     r1,r1,r2
        0x080008fa:    6081        .`      STR      r1,[r0,#8]
        0x080008fc:    e9d40105    ....    LDRD     r0,r1,[r4,#0x14]
        0x08000900:    4308        .C      ORRS     r0,r0,r1
        0x08000902:    6821        !h      LDR      r1,[r4,#0]
        0x08000904:    68ca        .h      LDR      r2,[r1,#0xc]
        0x08000906:    f02202ff    "...    BIC      r2,r2,#0xff
        0x0800090a:    4310        .C      ORRS     r0,r0,r2
        0x0800090c:    60c8        .`      STR      r0,[r1,#0xc]
        0x0800090e:    e001        ..      B        0x8000914 ; HAL_I2C_Init + 312
        0x08000910:    e00e        ..      B        0x8000930 ; HAL_I2C_Init + 340
        0x08000912:    e016        ..      B        0x8000942 ; HAL_I2C_Init + 358
        0x08000914:    6820         h      LDR      r0,[r4,#0]
        0x08000916:    6801        .h      LDR      r1,[r0,#0]
        0x08000918:    f0410101    A...    ORR      r1,r1,#1
        0x0800091c:    6001        .`      STR      r1,[r0,#0]
        0x0800091e:    6425        %d      STR      r5,[r4,#0x40]
        0x08000920:    2020                MOVS     r0,#0x20
        0x08000922:    f884003d    ..=.    STRB     r0,[r4,#0x3d]
        0x08000926:    6325        %c      STR      r5,[r4,#0x30]
        0x08000928:    f884503e    ..>P    STRB     r5,[r4,#0x3e]
        0x0800092c:    2000        .       MOVS     r0,#0
        0x0800092e:    bd70        p.      POP      {r4-r6,pc}
        0x08000930:    eb010641    ..A.    ADD      r6,r1,r1,LSL #1
        0x08000934:    1e43        C.      SUBS     r3,r0,#1
        0x08000936:    fbb3f3f6    ....    UDIV     r3,r3,r6
        0x0800093a:    1c5b        [.      ADDS     r3,r3,#1
        0x0800093c:    e7b3        ..      B        0x80008a6 ; HAL_I2C_Init + 202
        0x0800093e:    2001        .       MOVS     r0,#1
        0x08000940:    e7c2        ..      B        0x80008c8 ; HAL_I2C_Init + 236
        0x08000942:    eb010141    ..A.    ADD      r1,r1,r1,LSL #1
        0x08000946:    1e40        @.      SUBS     r0,r0,#1
        0x08000948:    fbb0f0f1    ....    UDIV     r0,r0,r1
        0x0800094c:    1c40        @.      ADDS     r0,r0,#1
        0x0800094e:    f3c0000b    ....    UBFX     r0,r0,#0,#12
        0x08000952:    e7b7        ..      B        0x80008c4 ; HAL_I2C_Init + 232
    $d
        0x08000954:    000186a0    ....    DCD    100000
        0x08000958:    001e8480    ....    DCD    2000000
        0x0800095c:    003d0900    ..=.    DCD    4000000
        0x08000960:    000f4240    @B..    DCD    1000000
    $t
    i.HAL_I2C_Master_Transmit
    HAL_I2C_Master_Transmit
        0x08000964:    e92d4ff8    -..O    PUSH     {r3-r11,lr}
        0x08000968:    461f        .F      MOV      r7,r3
        0x0800096a:    4690        .F      MOV      r8,r2
        0x0800096c:    468a        .F      MOV      r10,r1
        0x0800096e:    4604        .F      MOV      r4,r0
        0x08000970:    f8dd9028    ..(.    LDR      r9,[sp,#0x28]
        0x08000974:    f7ffff2c    ..,.    BL       HAL_GetTick ; 0x80007d0
        0x08000978:    4605        .F      MOV      r5,r0
        0x0800097a:    f894003d    ..=.    LDRB     r0,[r4,#0x3d]
        0x0800097e:    2820         (      CMP      r0,#0x20
        0x08000980:    d17f        ..      BNE      0x8000a82 ; HAL_I2C_Master_Transmit + 286
        0x08000982:    2319        .#      MOVS     r3,#0x19
        0x08000984:    2201        ."      MOVS     r2,#1
        0x08000986:    4940        @I      LDR      r1,[pc,#256] ; [0x8000a88] = 0x100002
        0x08000988:    4620         F      MOV      r0,r4
        0x0800098a:    9500        ..      STR      r5,[sp,#0]
        0x0800098c:    f000fe94    ....    BL       I2C_WaitOnFlagUntilTimeout ; 0x80016b8
        0x08000990:    2800        .(      CMP      r0,#0
        0x08000992:    d176        v.      BNE      0x8000a82 ; HAL_I2C_Master_Transmit + 286
        0x08000994:    f894003c    ..<.    LDRB     r0,[r4,#0x3c]
        0x08000998:    2801        .(      CMP      r0,#1
        0x0800099a:    d072        r.      BEQ      0x8000a82 ; HAL_I2C_Master_Transmit + 286
        0x0800099c:    2001        .       MOVS     r0,#1
        0x0800099e:    f884003c    ..<.    STRB     r0,[r4,#0x3c]
        0x080009a2:    6820         h      LDR      r0,[r4,#0]
        0x080009a4:    6801        .h      LDR      r1,[r0,#0]
        0x080009a6:    07c9        ..      LSLS     r1,r1,#31
        0x080009a8:    d103        ..      BNE      0x80009b2 ; HAL_I2C_Master_Transmit + 78
        0x080009aa:    6801        .h      LDR      r1,[r0,#0]
        0x080009ac:    f0410101    A...    ORR      r1,r1,#1
        0x080009b0:    6001        .`      STR      r1,[r0,#0]
        0x080009b2:    6820         h      LDR      r0,[r4,#0]
        0x080009b4:    6801        .h      LDR      r1,[r0,#0]
        0x080009b6:    f4216100    !..a    BIC      r1,r1,#0x800
        0x080009ba:    6001        .`      STR      r1,[r0,#0]
        0x080009bc:    2021        !       MOVS     r0,#0x21
        0x080009be:    f884003d    ..=.    STRB     r0,[r4,#0x3d]
        0x080009c2:    2010        .       MOVS     r0,#0x10
        0x080009c4:    f884003e    ..>.    STRB     r0,[r4,#0x3e]
        0x080009c8:    2600        .&      MOVS     r6,#0
        0x080009ca:    6426        &d      STR      r6,[r4,#0x40]
        0x080009cc:    f8c48024    ..$.    STR      r8,[r4,#0x24]
        0x080009d0:    8567        g.      STRH     r7,[r4,#0x2a]
        0x080009d2:    8d60        `.      LDRH     r0,[r4,#0x2a]
        0x080009d4:    8520         .      STRH     r0,[r4,#0x28]
        0x080009d6:    482d        -H      LDR      r0,[pc,#180] ; [0x8000a8c] = 0xffff0000
        0x080009d8:    62e0        .b      STR      r0,[r4,#0x2c]
        0x080009da:    462b        +F      MOV      r3,r5
        0x080009dc:    464a        JF      MOV      r2,r9
        0x080009de:    4651        QF      MOV      r1,r10
        0x080009e0:    4620         F      MOV      r0,r4
        0x080009e2:    f000fd9b    ....    BL       I2C_MasterRequestWrite ; 0x800151c
        0x080009e6:    b990        ..      CBNZ     r0,0x8000a0e ; HAL_I2C_Master_Transmit + 170
        0x080009e8:    6820         h      LDR      r0,[r4,#0]
        0x080009ea:    6941        Ai      LDR      r1,[r0,#0x14]
        0x080009ec:    6980        .i      LDR      r0,[r0,#0x18]
        0x080009ee:    9000        ..      STR      r0,[sp,#0]
        0x080009f0:    e036        6.      B        0x8000a60 ; HAL_I2C_Master_Transmit + 252
        0x080009f2:    462a        *F      MOV      r2,r5
        0x080009f4:    4649        IF      MOV      r1,r9
        0x080009f6:    4620         F      MOV      r0,r4
        0x080009f8:    f000ff04    ....    BL       I2C_WaitOnTXEFlagUntilTimeout ; 0x8001804
        0x080009fc:    b150        P.      CBZ      r0,0x8000a14 ; HAL_I2C_Master_Transmit + 176
        0x080009fe:    6c20         l      LDR      r0,[r4,#0x40]
        0x08000a00:    2804        .(      CMP      r0,#4
        0x08000a02:    d104        ..      BNE      0x8000a0e ; HAL_I2C_Master_Transmit + 170
        0x08000a04:    6820         h      LDR      r0,[r4,#0]
        0x08000a06:    6801        .h      LDR      r1,[r0,#0]
        0x08000a08:    f4417100    A..q    ORR      r1,r1,#0x200
        0x08000a0c:    6001        .`      STR      r1,[r0,#0]
        0x08000a0e:    2001        .       MOVS     r0,#1
        0x08000a10:    e8bd8ff8    ....    POP      {r3-r11,pc}
        0x08000a14:    6a60        `j      LDR      r0,[r4,#0x24]
        0x08000a16:    6821        !h      LDR      r1,[r4,#0]
        0x08000a18:    7800        .x      LDRB     r0,[r0,#0]
        0x08000a1a:    6108        .a      STR      r0,[r1,#0x10]
        0x08000a1c:    6a60        `j      LDR      r0,[r4,#0x24]
        0x08000a1e:    1c40        @.      ADDS     r0,r0,#1
        0x08000a20:    6260        `b      STR      r0,[r4,#0x24]
        0x08000a22:    8d61        a.      LDRH     r1,[r4,#0x2a]
        0x08000a24:    1e49        I.      SUBS     r1,r1,#1
        0x08000a26:    8561        a.      STRH     r1,[r4,#0x2a]
        0x08000a28:    8d21        !.      LDRH     r1,[r4,#0x28]
        0x08000a2a:    1e49        I.      SUBS     r1,r1,#1
        0x08000a2c:    b289        ..      UXTH     r1,r1
        0x08000a2e:    8521        !.      STRH     r1,[r4,#0x28]
        0x08000a30:    6822        "h      LDR      r2,[r4,#0]
        0x08000a32:    6953        Si      LDR      r3,[r2,#0x14]
        0x08000a34:    43db        .C      MVNS     r3,r3
        0x08000a36:    075b        [.      LSLS     r3,r3,#29
        0x08000a38:    d40b        ..      BMI      0x8000a52 ; HAL_I2C_Master_Transmit + 238
        0x08000a3a:    b151        Q.      CBZ      r1,0x8000a52 ; HAL_I2C_Master_Transmit + 238
        0x08000a3c:    7800        .x      LDRB     r0,[r0,#0]
        0x08000a3e:    6110        .a      STR      r0,[r2,#0x10]
        0x08000a40:    6a60        `j      LDR      r0,[r4,#0x24]
        0x08000a42:    1c40        @.      ADDS     r0,r0,#1
        0x08000a44:    6260        `b      STR      r0,[r4,#0x24]
        0x08000a46:    8d60        `.      LDRH     r0,[r4,#0x2a]
        0x08000a48:    1e40        @.      SUBS     r0,r0,#1
        0x08000a4a:    8560        `.      STRH     r0,[r4,#0x2a]
        0x08000a4c:    8d20         .      LDRH     r0,[r4,#0x28]
        0x08000a4e:    1e40        @.      SUBS     r0,r0,#1
        0x08000a50:    8520         .      STRH     r0,[r4,#0x28]
        0x08000a52:    462a        *F      MOV      r2,r5
        0x08000a54:    4649        IF      MOV      r1,r9
        0x08000a56:    4620         F      MOV      r0,r4
        0x08000a58:    f000fe02    ....    BL       I2C_WaitOnBTFFlagUntilTimeout ; 0x8001660
        0x08000a5c:    2800        .(      CMP      r0,#0
        0x08000a5e:    d1ce        ..      BNE      0x80009fe ; HAL_I2C_Master_Transmit + 154
        0x08000a60:    8d20         .      LDRH     r0,[r4,#0x28]
        0x08000a62:    2800        .(      CMP      r0,#0
        0x08000a64:    d1c5        ..      BNE      0x80009f2 ; HAL_I2C_Master_Transmit + 142
        0x08000a66:    f8540b3d    T.=.    LDR      r0,[r4],#0x3d
        0x08000a6a:    6801        .h      LDR      r1,[r0,#0]
        0x08000a6c:    f4417100    A..q    ORR      r1,r1,#0x200
        0x08000a70:    6001        .`      STR      r1,[r0,#0]
        0x08000a72:    2020                MOVS     r0,#0x20
        0x08000a74:    f804091e    ....    STRB     r0,[r4],#-0x1e
        0x08000a78:    77e6        .w      STRB     r6,[r4,#0x1f]
        0x08000a7a:    7766        fw      STRB     r6,[r4,#0x1d]
        0x08000a7c:    2000        .       MOVS     r0,#0
        0x08000a7e:    e7c7        ..      B        0x8000a10 ; HAL_I2C_Master_Transmit + 172
        0x08000a80:    e7ff        ..      B        0x8000a82 ; HAL_I2C_Master_Transmit + 286
        0x08000a82:    2002        .       MOVS     r0,#2
        0x08000a84:    e7c4        ..      B        0x8000a10 ; HAL_I2C_Master_Transmit + 172
    $d
        0x08000a86:    0000        ..      DCW    0
        0x08000a88:    00100002    ....    DCD    1048578
        0x08000a8c:    ffff0000    ....    DCD    4294901760
    $t
    i.HAL_I2C_Mem_Write
    HAL_I2C_Mem_Write
        0x08000a90:    e92d4fff    -..O    PUSH     {r0-r11,lr}
        0x08000a94:    b083        ..      SUB      sp,sp,#0xc
        0x08000a96:    469a        .F      MOV      r10,r3
        0x08000a98:    e9dd9711    ....    LDRD     r9,r7,[sp,#0x44]
        0x08000a9c:    4693        .F      MOV      r11,r2
        0x08000a9e:    4604        .F      MOV      r4,r0
        0x08000aa0:    f8dd8040    ..@.    LDR      r8,[sp,#0x40]
        0x08000aa4:    f7fffe94    ....    BL       HAL_GetTick ; 0x80007d0
        0x08000aa8:    4605        .F      MOV      r5,r0
        0x08000aaa:    f894003d    ..=.    LDRB     r0,[r4,#0x3d]
        0x08000aae:    2820         (      CMP      r0,#0x20
        0x08000ab0:    d17f        ..      BNE      0x8000bb2 ; HAL_I2C_Mem_Write + 290
        0x08000ab2:    2319        .#      MOVS     r3,#0x19
        0x08000ab4:    2201        ."      MOVS     r2,#1
        0x08000ab6:    4940        @I      LDR      r1,[pc,#256] ; [0x8000bb8] = 0x100002
        0x08000ab8:    4620         F      MOV      r0,r4
        0x08000aba:    9500        ..      STR      r5,[sp,#0]
        0x08000abc:    f000fdfc    ....    BL       I2C_WaitOnFlagUntilTimeout ; 0x80016b8
        0x08000ac0:    2800        .(      CMP      r0,#0
        0x08000ac2:    d176        v.      BNE      0x8000bb2 ; HAL_I2C_Mem_Write + 290
        0x08000ac4:    f894003c    ..<.    LDRB     r0,[r4,#0x3c]
        0x08000ac8:    2801        .(      CMP      r0,#1
        0x08000aca:    d072        r.      BEQ      0x8000bb2 ; HAL_I2C_Mem_Write + 290
        0x08000acc:    2001        .       MOVS     r0,#1
        0x08000ace:    f884003c    ..<.    STRB     r0,[r4,#0x3c]
        0x08000ad2:    6820         h      LDR      r0,[r4,#0]
        0x08000ad4:    6801        .h      LDR      r1,[r0,#0]
        0x08000ad6:    07c9        ..      LSLS     r1,r1,#31
        0x08000ad8:    d103        ..      BNE      0x8000ae2 ; HAL_I2C_Mem_Write + 82
        0x08000ada:    6801        .h      LDR      r1,[r0,#0]
        0x08000adc:    f0410101    A...    ORR      r1,r1,#1
        0x08000ae0:    6001        .`      STR      r1,[r0,#0]
        0x08000ae2:    6820         h      LDR      r0,[r4,#0]
        0x08000ae4:    6801        .h      LDR      r1,[r0,#0]
        0x08000ae6:    f4216100    !..a    BIC      r1,r1,#0x800
        0x08000aea:    6001        .`      STR      r1,[r0,#0]
        0x08000aec:    2021        !       MOVS     r0,#0x21
        0x08000aee:    f884003d    ..=.    STRB     r0,[r4,#0x3d]
        0x08000af2:    2040        @       MOVS     r0,#0x40
        0x08000af4:    f884003e    ..>.    STRB     r0,[r4,#0x3e]
        0x08000af8:    2600        .&      MOVS     r6,#0
        0x08000afa:    6426        &d      STR      r6,[r4,#0x40]
        0x08000afc:    f8c48024    ..$.    STR      r8,[r4,#0x24]
        0x08000b00:    f8a4902a    ..*.    STRH     r9,[r4,#0x2a]
        0x08000b04:    8d60        `.      LDRH     r0,[r4,#0x2a]
        0x08000b06:    8520         .      STRH     r0,[r4,#0x28]
        0x08000b08:    482c        ,H      LDR      r0,[pc,#176] ; [0x8000bbc] = 0xffff0000
        0x08000b0a:    62e0        .b      STR      r0,[r4,#0x2c]
        0x08000b0c:    e9cd7500    ...u    STRD     r7,r5,[sp,#0]
        0x08000b10:    4653        SF      MOV      r3,r10
        0x08000b12:    465a        ZF      MOV      r2,r11
        0x08000b14:    4620         F      MOV      r0,r4
        0x08000b16:    9904        ..      LDR      r1,[sp,#0x10]
        0x08000b18:    f000fd4e    ..N.    BL       I2C_RequestMemoryWrite ; 0x80015b8
        0x08000b1c:    b970        p.      CBNZ     r0,0x8000b3c ; HAL_I2C_Mem_Write + 172
        0x08000b1e:    e030        0.      B        0x8000b82 ; HAL_I2C_Mem_Write + 242
        0x08000b20:    462a        *F      MOV      r2,r5
        0x08000b22:    4639        9F      MOV      r1,r7
        0x08000b24:    4620         F      MOV      r0,r4
        0x08000b26:    f000fe6d    ..m.    BL       I2C_WaitOnTXEFlagUntilTimeout ; 0x8001804
        0x08000b2a:    b158        X.      CBZ      r0,0x8000b44 ; HAL_I2C_Mem_Write + 180
        0x08000b2c:    6c20         l      LDR      r0,[r4,#0x40]
        0x08000b2e:    2804        .(      CMP      r0,#4
        0x08000b30:    d104        ..      BNE      0x8000b3c ; HAL_I2C_Mem_Write + 172
        0x08000b32:    6820         h      LDR      r0,[r4,#0]
        0x08000b34:    6801        .h      LDR      r1,[r0,#0]
        0x08000b36:    f4417100    A..q    ORR      r1,r1,#0x200
        0x08000b3a:    6001        .`      STR      r1,[r0,#0]
        0x08000b3c:    2001        .       MOVS     r0,#1
        0x08000b3e:    b007        ..      ADD      sp,sp,#0x1c
        0x08000b40:    e8bd8ff0    ....    POP      {r4-r11,pc}
        0x08000b44:    6a60        `j      LDR      r0,[r4,#0x24]
        0x08000b46:    6821        !h      LDR      r1,[r4,#0]
        0x08000b48:    7800        .x      LDRB     r0,[r0,#0]
        0x08000b4a:    6108        .a      STR      r0,[r1,#0x10]
        0x08000b4c:    6a60        `j      LDR      r0,[r4,#0x24]
        0x08000b4e:    1c40        @.      ADDS     r0,r0,#1
        0x08000b50:    6260        `b      STR      r0,[r4,#0x24]
        0x08000b52:    8d21        !.      LDRH     r1,[r4,#0x28]
        0x08000b54:    1e49        I.      SUBS     r1,r1,#1
        0x08000b56:    b289        ..      UXTH     r1,r1
        0x08000b58:    8521        !.      STRH     r1,[r4,#0x28]
        0x08000b5a:    8d62        b.      LDRH     r2,[r4,#0x2a]
        0x08000b5c:    1e52        R.      SUBS     r2,r2,#1
        0x08000b5e:    8562        b.      STRH     r2,[r4,#0x2a]
        0x08000b60:    6822        "h      LDR      r2,[r4,#0]
        0x08000b62:    6953        Si      LDR      r3,[r2,#0x14]
        0x08000b64:    43db        .C      MVNS     r3,r3
        0x08000b66:    075b        [.      LSLS     r3,r3,#29
        0x08000b68:    d40b        ..      BMI      0x8000b82 ; HAL_I2C_Mem_Write + 242
        0x08000b6a:    b169        i.      CBZ      r1,0x8000b88 ; HAL_I2C_Mem_Write + 248
        0x08000b6c:    7800        .x      LDRB     r0,[r0,#0]
        0x08000b6e:    6110        .a      STR      r0,[r2,#0x10]
        0x08000b70:    6a60        `j      LDR      r0,[r4,#0x24]
        0x08000b72:    1c40        @.      ADDS     r0,r0,#1
        0x08000b74:    6260        `b      STR      r0,[r4,#0x24]
        0x08000b76:    8d20         .      LDRH     r0,[r4,#0x28]
        0x08000b78:    1e40        @.      SUBS     r0,r0,#1
        0x08000b7a:    8520         .      STRH     r0,[r4,#0x28]
        0x08000b7c:    8d60        `.      LDRH     r0,[r4,#0x2a]
        0x08000b7e:    1e40        @.      SUBS     r0,r0,#1
        0x08000b80:    8560        `.      STRH     r0,[r4,#0x2a]
        0x08000b82:    8d20         .      LDRH     r0,[r4,#0x28]
        0x08000b84:    2800        .(      CMP      r0,#0
        0x08000b86:    d1cb        ..      BNE      0x8000b20 ; HAL_I2C_Mem_Write + 144
        0x08000b88:    462a        *F      MOV      r2,r5
        0x08000b8a:    4639        9F      MOV      r1,r7
        0x08000b8c:    4620         F      MOV      r0,r4
        0x08000b8e:    f000fd67    ..g.    BL       I2C_WaitOnBTFFlagUntilTimeout ; 0x8001660
        0x08000b92:    2800        .(      CMP      r0,#0
        0x08000b94:    d1ca        ..      BNE      0x8000b2c ; HAL_I2C_Mem_Write + 156
        0x08000b96:    f8540b3d    T.=.    LDR      r0,[r4],#0x3d
        0x08000b9a:    6801        .h      LDR      r1,[r0,#0]
        0x08000b9c:    f4417100    A..q    ORR      r1,r1,#0x200
        0x08000ba0:    6001        .`      STR      r1,[r0,#0]
        0x08000ba2:    2020                MOVS     r0,#0x20
        0x08000ba4:    f804091e    ....    STRB     r0,[r4],#-0x1e
        0x08000ba8:    77e6        .w      STRB     r6,[r4,#0x1f]
        0x08000baa:    7766        fw      STRB     r6,[r4,#0x1d]
        0x08000bac:    2000        .       MOVS     r0,#0
        0x08000bae:    e7c6        ..      B        0x8000b3e ; HAL_I2C_Mem_Write + 174
        0x08000bb0:    e7ff        ..      B        0x8000bb2 ; HAL_I2C_Mem_Write + 290
        0x08000bb2:    2002        .       MOVS     r0,#2
        0x08000bb4:    e7c3        ..      B        0x8000b3e ; HAL_I2C_Mem_Write + 174
    $d
        0x08000bb6:    0000        ..      DCW    0
        0x08000bb8:    00100002    ....    DCD    1048578
        0x08000bbc:    ffff0000    ....    DCD    4294901760
    $t
    i.HAL_I2C_MspInit
    HAL_I2C_MspInit
        0x08000bc0:    b510        ..      PUSH     {r4,lr}
        0x08000bc2:    b086        ..      SUB      sp,sp,#0x18
        0x08000bc4:    4604        .F      MOV      r4,r0
        0x08000bc6:    2114        .!      MOVS     r1,#0x14
        0x08000bc8:    4668        hF      MOV      r0,sp
        0x08000bca:    f7fffb45    ..E.    BL       __aeabi_memclr ; 0x8000258
        0x08000bce:    4914        .I      LDR      r1,[pc,#80] ; [0x8000c20] = 0x40005400
        0x08000bd0:    6820         h      LDR      r0,[r4,#0]
        0x08000bd2:    4288        .B      CMP      r0,r1
        0x08000bd4:    d121        !.      BNE      0x8000c1a ; HAL_I2C_MspInit + 90
        0x08000bd6:    4813        .H      LDR      r0,[pc,#76] ; [0x8000c24] = 0x40023830
        0x08000bd8:    2100        .!      MOVS     r1,#0
        0x08000bda:    6802        .h      LDR      r2,[r0,#0]
        0x08000bdc:    f0420202    B...    ORR      r2,r2,#2
        0x08000be0:    6002        .`      STR      r2,[r0,#0]
        0x08000be2:    6800        .h      LDR      r0,[r0,#0]
        0x08000be4:    f0000002    ....    AND      r0,r0,#2
        0x08000be8:    9005        ..      STR      r0,[sp,#0x14]
        0x08000bea:    f44f7040    O.@p    MOV      r0,#0x300
        0x08000bee:    9000        ..      STR      r0,[sp,#0]
        0x08000bf0:    2012        .       MOVS     r0,#0x12
        0x08000bf2:    e9cd0101    ....    STRD     r0,r1,[sp,#4]
        0x08000bf6:    2003        .       MOVS     r0,#3
        0x08000bf8:    9003        ..      STR      r0,[sp,#0xc]
        0x08000bfa:    2004        .       MOVS     r0,#4
        0x08000bfc:    9004        ..      STR      r0,[sp,#0x10]
        0x08000bfe:    4669        iF      MOV      r1,sp
        0x08000c00:    4809        .H      LDR      r0,[pc,#36] ; [0x8000c28] = 0x40020400
        0x08000c02:    f7fffce3    ....    BL       HAL_GPIO_Init ; 0x80005cc
        0x08000c06:    4807        .H      LDR      r0,[pc,#28] ; [0x8000c24] = 0x40023830
        0x08000c08:    3010        .0      ADDS     r0,r0,#0x10
        0x08000c0a:    6801        .h      LDR      r1,[r0,#0]
        0x08000c0c:    f4411100    A...    ORR      r1,r1,#0x200000
        0x08000c10:    6001        .`      STR      r1,[r0,#0]
        0x08000c12:    6800        .h      LDR      r0,[r0,#0]
        0x08000c14:    f4001000    ....    AND      r0,r0,#0x200000
        0x08000c18:    9005        ..      STR      r0,[sp,#0x14]
        0x08000c1a:    b006        ..      ADD      sp,sp,#0x18
        0x08000c1c:    bd10        ..      POP      {r4,pc}
    $d
        0x08000c1e:    0000        ..      DCW    0
        0x08000c20:    40005400    .T.@    DCD    1073763328
        0x08000c24:    40023830    08.@    DCD    1073887280
        0x08000c28:    40020400    ...@    DCD    1073873920
    $t
    i.HAL_IncTick
    HAL_IncTick
        0x08000c2c:    4802        .H      LDR      r0,[pc,#8] ; [0x8000c38] = 0x20000010
        0x08000c2e:    6881        .h      LDR      r1,[r0,#8]
        0x08000c30:    7802        .x      LDRB     r2,[r0,#0]
        0x08000c32:    4411        .D      ADD      r1,r1,r2
        0x08000c34:    6081        .`      STR      r1,[r0,#8]
        0x08000c36:    4770        pG      BX       lr
    $d
        0x08000c38:    20000010    ...     DCD    536870928
    $t
    i.HAL_Init
    HAL_Init
        0x08000c3c:    480b        .H      LDR      r0,[pc,#44] ; [0x8000c6c] = 0x40023c00
        0x08000c3e:    b510        ..      PUSH     {r4,lr}
        0x08000c40:    6801        .h      LDR      r1,[r0,#0]
        0x08000c42:    f4417100    A..q    ORR      r1,r1,#0x200
        0x08000c46:    6001        .`      STR      r1,[r0,#0]
        0x08000c48:    6801        .h      LDR      r1,[r0,#0]
        0x08000c4a:    f4416180    A..a    ORR      r1,r1,#0x400
        0x08000c4e:    6001        .`      STR      r1,[r0,#0]
        0x08000c50:    6801        .h      LDR      r1,[r0,#0]
        0x08000c52:    f4417180    A..q    ORR      r1,r1,#0x100
        0x08000c56:    6001        .`      STR      r1,[r0,#0]
        0x08000c58:    2003        .       MOVS     r0,#3
        0x08000c5a:    f000f86f    ..o.    BL       HAL_NVIC_SetPriorityGrouping ; 0x8000d3c
        0x08000c5e:    200f        .       MOVS     r0,#0xf
        0x08000c60:    f000f806    ....    BL       HAL_InitTick ; 0x8000c70
        0x08000c64:    f000f824    ..$.    BL       HAL_MspInit ; 0x8000cb0
        0x08000c68:    2000        .       MOVS     r0,#0
        0x08000c6a:    bd10        ..      POP      {r4,pc}
    $d
        0x08000c6c:    40023c00    .<.@    DCD    1073888256
    $t
    i.HAL_InitTick
    HAL_InitTick
        0x08000c70:    b570        p.      PUSH     {r4-r6,lr}
        0x08000c72:    4d0d        .M      LDR      r5,[pc,#52] ; [0x8000ca8] = 0x20000010
        0x08000c74:    4604        .F      MOV      r4,r0
        0x08000c76:    f44f717a    O.zq    MOV      r1,#0x3e8
        0x08000c7a:    7828        (x      LDRB     r0,[r5,#0]
        0x08000c7c:    fbb1f0f0    ....    UDIV     r0,r1,r0
        0x08000c80:    490a        .I      LDR      r1,[pc,#40] ; [0x8000cac] = 0x2000001c
        0x08000c82:    6809        .h      LDR      r1,[r1,#0]
        0x08000c84:    fbb1f0f0    ....    UDIV     r0,r1,r0
        0x08000c88:    f000fb0c    ....    BL       HAL_SYSTICK_Config ; 0x80012a4
        0x08000c8c:    b948        H.      CBNZ     r0,0x8000ca2 ; HAL_InitTick + 50
        0x08000c8e:    2c10        .,      CMP      r4,#0x10
        0x08000c90:    d207        ..      BCS      0x8000ca2 ; HAL_InitTick + 50
        0x08000c92:    2200        ."      MOVS     r2,#0
        0x08000c94:    4621        !F      MOV      r1,r4
        0x08000c96:    1e50        P.      SUBS     r0,r2,#1
        0x08000c98:    f000f830    ..0.    BL       HAL_NVIC_SetPriority ; 0x8000cfc
        0x08000c9c:    2000        .       MOVS     r0,#0
        0x08000c9e:    606c        l`      STR      r4,[r5,#4]
        0x08000ca0:    bd70        p.      POP      {r4-r6,pc}
        0x08000ca2:    2001        .       MOVS     r0,#1
        0x08000ca4:    bd70        p.      POP      {r4-r6,pc}
    $d
        0x08000ca6:    0000        ..      DCW    0
        0x08000ca8:    20000010    ...     DCD    536870928
        0x08000cac:    2000001c    ...     DCD    536870940
    $t
    i.HAL_MspInit
    HAL_MspInit
        0x08000cb0:    480a        .H      LDR      r0,[pc,#40] ; [0x8000cdc] = 0x40023844
        0x08000cb2:    b508        ..      PUSH     {r3,lr}
        0x08000cb4:    6801        .h      LDR      r1,[r0,#0]
        0x08000cb6:    f4414180    A..A    ORR      r1,r1,#0x4000
        0x08000cba:    6001        .`      STR      r1,[r0,#0]
        0x08000cbc:    6800        .h      LDR      r0,[r0,#0]
        0x08000cbe:    f4004080    ...@    AND      r0,r0,#0x4000
        0x08000cc2:    9000        ..      STR      r0,[sp,#0]
        0x08000cc4:    4805        .H      LDR      r0,[pc,#20] ; [0x8000cdc] = 0x40023844
        0x08000cc6:    1f00        ..      SUBS     r0,r0,#4
        0x08000cc8:    6801        .h      LDR      r1,[r0,#0]
        0x08000cca:    f0415180    A..Q    ORR      r1,r1,#0x10000000
        0x08000cce:    6001        .`      STR      r1,[r0,#0]
        0x08000cd0:    6800        .h      LDR      r0,[r0,#0]
        0x08000cd2:    f0005080    ...P    AND      r0,r0,#0x10000000
        0x08000cd6:    9000        ..      STR      r0,[sp,#0]
        0x08000cd8:    bd08        ..      POP      {r3,pc}
    $d
        0x08000cda:    0000        ..      DCW    0
        0x08000cdc:    40023844    D8.@    DCD    1073887300
    $t
    i.HAL_NVIC_EnableIRQ
    HAL_NVIC_EnableIRQ
        0x08000ce0:    2800        .(      CMP      r0,#0
        0x08000ce2:    db09        ..      BLT      0x8000cf8 ; HAL_NVIC_EnableIRQ + 24
        0x08000ce4:    f000021f    ....    AND      r2,r0,#0x1f
        0x08000ce8:    2101        .!      MOVS     r1,#1
        0x08000cea:    4091        .@      LSLS     r1,r1,r2
        0x08000cec:    0940        @.      LSRS     r0,r0,#5
        0x08000cee:    0080        ..      LSLS     r0,r0,#2
        0x08000cf0:    f10020e0    ...     ADD      r0,r0,#0xe000e000
        0x08000cf4:    f8c01100    ....    STR      r1,[r0,#0x100]
        0x08000cf8:    4770        pG      BX       lr
        0x08000cfa:    0000        ..      MOVS     r0,r0
    i.HAL_NVIC_SetPriority
    HAL_NVIC_SetPriority
        0x08000cfc:    b4f0        ..      PUSH     {r4-r7}
        0x08000cfe:    4b0e        .K      LDR      r3,[pc,#56] ; [0x8000d38] = 0xe000ed0c
        0x08000d00:    681b        .h      LDR      r3,[r3,#0]
        0x08000d02:    460c        .F      MOV      r4,r1
        0x08000d04:    f3c32302    ...#    UBFX     r3,r3,#8,#3
        0x08000d08:    f1c30507    ....    RSB      r5,r3,#7
        0x08000d0c:    2d04        .-      CMP      r5,#4
        0x08000d0e:    d900        ..      BLS      0x8000d12 ; HAL_NVIC_SetPriority + 22
        0x08000d10:    2504        .%      MOVS     r5,#4
        0x08000d12:    1d19        ..      ADDS     r1,r3,#4
        0x08000d14:    2907        .)      CMP      r1,#7
        0x08000d16:    d201        ..      BCS      0x8000d1c ; HAL_NVIC_SetPriority + 32
        0x08000d18:    2300        .#      MOVS     r3,#0
        0x08000d1a:    e000        ..      B        0x8000d1e ; HAL_NVIC_SetPriority + 34
        0x08000d1c:    1edb        ..      SUBS     r3,r3,#3
        0x08000d1e:    2601        .&      MOVS     r6,#1
        0x08000d20:    fa06f105    ....    LSL      r1,r6,r5
        0x08000d24:    1e49        I.      SUBS     r1,r1,#1
        0x08000d26:    4021        !@      ANDS     r1,r1,r4
        0x08000d28:    4099        .@      LSLS     r1,r1,r3
        0x08000d2a:    409e        .@      LSLS     r6,r6,r3
        0x08000d2c:    1e76        v.      SUBS     r6,r6,#1
        0x08000d2e:    4016        .@      ANDS     r6,r6,r2
        0x08000d30:    4331        1C      ORRS     r1,r1,r6
        0x08000d32:    bcf0        ..      POP      {r4-r7}
        0x08000d34:    f001b860    ..`.    B.W      __NVIC_SetPriority ; 0x8001df8
    $d
        0x08000d38:    e000ed0c    ....    DCD    3758157068
    $t
    i.HAL_NVIC_SetPriorityGrouping
    HAL_NVIC_SetPriorityGrouping
        0x08000d3c:    4906        .I      LDR      r1,[pc,#24] ; [0x8000d58] = 0xe000ed0c
        0x08000d3e:    f0000207    ....    AND      r2,r0,#7
        0x08000d42:    6808        .h      LDR      r0,[r1,#0]
        0x08000d44:    f64f03ff    O...    MOV      r3,#0xf8ff
        0x08000d48:    4018        .@      ANDS     r0,r0,r3
        0x08000d4a:    ea402002    @..     ORR      r0,r0,r2,LSL #8
        0x08000d4e:    4a03        .J      LDR      r2,[pc,#12] ; [0x8000d5c] = 0x5fa0000
        0x08000d50:    4310        .C      ORRS     r0,r0,r2
        0x08000d52:    6008        .`      STR      r0,[r1,#0]
        0x08000d54:    4770        pG      BX       lr
    $d
        0x08000d56:    0000        ..      DCW    0
        0x08000d58:    e000ed0c    ....    DCD    3758157068
        0x08000d5c:    05fa0000    ....    DCD    100270080
    $t
    i.HAL_RCC_ClockConfig
    HAL_RCC_ClockConfig
        0x08000d60:    e92d47f0    -..G    PUSH     {r4-r10,lr}
        0x08000d64:    460e        .F      MOV      r6,r1
        0x08000d66:    0005        ..      MOVS     r5,r0
        0x08000d68:    d065        e.      BEQ      0x8000e36 ; HAL_RCC_ClockConfig + 214
        0x08000d6a:    f8df8114    ....    LDR      r8,[pc,#276] ; [0x8000e80] = 0x40023c00
        0x08000d6e:    f8d80000    ....    LDR      r0,[r8,#0]
        0x08000d72:    b2f7        ..      UXTB     r7,r6
        0x08000d74:    f0000007    ....    AND      r0,r0,#7
        0x08000d78:    42b0        .B      CMP      r0,r6
        0x08000d7a:    d207        ..      BCS      0x8000d8c ; HAL_RCC_ClockConfig + 44
        0x08000d7c:    f8887000    ...p    STRB     r7,[r8,#0]
        0x08000d80:    f8d80000    ....    LDR      r0,[r8,#0]
        0x08000d84:    f0000007    ....    AND      r0,r0,#7
        0x08000d88:    42b0        .B      CMP      r0,r6
        0x08000d8a:    d154        T.      BNE      0x8000e36 ; HAL_RCC_ClockConfig + 214
        0x08000d8c:    6828        (h      LDR      r0,[r5,#0]
        0x08000d8e:    4c3d        =L      LDR      r4,[pc,#244] ; [0x8000e84] = 0x40023808
        0x08000d90:    0781        ..      LSLS     r1,r0,#30
        0x08000d92:    d512        ..      BPL      0x8000dba ; HAL_RCC_ClockConfig + 90
        0x08000d94:    0740        @.      LSLS     r0,r0,#29
        0x08000d96:    d503        ..      BPL      0x8000da0 ; HAL_RCC_ClockConfig + 64
        0x08000d98:    6820         h      LDR      r0,[r4,#0]
        0x08000d9a:    f44050e0    @..P    ORR      r0,r0,#0x1c00
        0x08000d9e:    6020         `      STR      r0,[r4,#0]
        0x08000da0:    7828        (x      LDRB     r0,[r5,#0]
        0x08000da2:    0700        ..      LSLS     r0,r0,#28
        0x08000da4:    d503        ..      BPL      0x8000dae ; HAL_RCC_ClockConfig + 78
        0x08000da6:    6820         h      LDR      r0,[r4,#0]
        0x08000da8:    f4404060    @.`@    ORR      r0,r0,#0xe000
        0x08000dac:    6020         `      STR      r0,[r4,#0]
        0x08000dae:    6820         h      LDR      r0,[r4,#0]
        0x08000db0:    68a9        .h      LDR      r1,[r5,#8]
        0x08000db2:    f02000f0     ...    BIC      r0,r0,#0xf0
        0x08000db6:    4308        .C      ORRS     r0,r0,r1
        0x08000db8:    6020         `      STR      r0,[r4,#0]
        0x08000dba:    7828        (x      LDRB     r0,[r5,#0]
        0x08000dbc:    07c0        ..      LSLS     r0,r0,#31
        0x08000dbe:    d02d        -.      BEQ      0x8000e1c ; HAL_RCC_ClockConfig + 188
        0x08000dc0:    4930        0I      LDR      r1,[pc,#192] ; [0x8000e84] = 0x40023808
        0x08000dc2:    6868        hh      LDR      r0,[r5,#4]
        0x08000dc4:    3908        .9      SUBS     r1,r1,#8
        0x08000dc6:    2801        .(      CMP      r0,#1
        0x08000dc8:    d012        ..      BEQ      0x8000df0 ; HAL_RCC_ClockConfig + 144
        0x08000dca:    2802        .(      CMP      r0,#2
        0x08000dcc:    d013        ..      BEQ      0x8000df6 ; HAL_RCC_ClockConfig + 150
        0x08000dce:    2803        .(      CMP      r0,#3
        0x08000dd0:    d011        ..      BEQ      0x8000df6 ; HAL_RCC_ClockConfig + 150
        0x08000dd2:    6809        .h      LDR      r1,[r1,#0]
        0x08000dd4:    0789        ..      LSLS     r1,r1,#30
        0x08000dd6:    2900        .)      CMP      r1,#0
        0x08000dd8:    da2d        -.      BGE      0x8000e36 ; HAL_RCC_ClockConfig + 214
        0x08000dda:    6821        !h      LDR      r1,[r4,#0]
        0x08000ddc:    f0210103    !...    BIC      r1,r1,#3
        0x08000de0:    4301        .C      ORRS     r1,r1,r0
        0x08000de2:    6021        !`      STR      r1,[r4,#0]
        0x08000de4:    f7fffcf4    ....    BL       HAL_GetTick ; 0x80007d0
        0x08000de8:    4681        .F      MOV      r9,r0
        0x08000dea:    f2413a88    A..:    MOV      r10,#0x1388
        0x08000dee:    e00e        ..      B        0x8000e0e ; HAL_RCC_ClockConfig + 174
        0x08000df0:    6809        .h      LDR      r1,[r1,#0]
        0x08000df2:    0389        ..      LSLS     r1,r1,#14
        0x08000df4:    e7ef        ..      B        0x8000dd6 ; HAL_RCC_ClockConfig + 118
        0x08000df6:    6809        .h      LDR      r1,[r1,#0]
        0x08000df8:    0189        ..      LSLS     r1,r1,#6
        0x08000dfa:    e7ec        ..      B        0x8000dd6 ; HAL_RCC_ClockConfig + 118
        0x08000dfc:    f7fffce8    ....    BL       HAL_GetTick ; 0x80007d0
        0x08000e00:    eba00109    ....    SUB      r1,r0,r9
        0x08000e04:    4551        QE      CMP      r1,r10
        0x08000e06:    d902        ..      BLS      0x8000e0e ; HAL_RCC_ClockConfig + 174
        0x08000e08:    2003        .       MOVS     r0,#3
        0x08000e0a:    e8bd87f0    ....    POP      {r4-r10,pc}
        0x08000e0e:    6820         h      LDR      r0,[r4,#0]
        0x08000e10:    6869        ih      LDR      r1,[r5,#4]
        0x08000e12:    f000000c    ....    AND      r0,r0,#0xc
        0x08000e16:    ebb00f81    ....    CMP      r0,r1,LSL #2
        0x08000e1a:    d1ef        ..      BNE      0x8000dfc ; HAL_RCC_ClockConfig + 156
        0x08000e1c:    f8d81000    ....    LDR      r1,[r8,#0]
        0x08000e20:    4640        @F      MOV      r0,r8
        0x08000e22:    f0010107    ....    AND      r1,r1,#7
        0x08000e26:    42b1        .B      CMP      r1,r6
        0x08000e28:    d907        ..      BLS      0x8000e3a ; HAL_RCC_ClockConfig + 218
        0x08000e2a:    7007        .p      STRB     r7,[r0,#0]
        0x08000e2c:    6800        .h      LDR      r0,[r0,#0]
        0x08000e2e:    f0000007    ....    AND      r0,r0,#7
        0x08000e32:    42b0        .B      CMP      r0,r6
        0x08000e34:    d001        ..      BEQ      0x8000e3a ; HAL_RCC_ClockConfig + 218
        0x08000e36:    2001        .       MOVS     r0,#1
        0x08000e38:    e7e7        ..      B        0x8000e0a ; HAL_RCC_ClockConfig + 170
        0x08000e3a:    7828        (x      LDRB     r0,[r5,#0]
        0x08000e3c:    0740        @.      LSLS     r0,r0,#29
        0x08000e3e:    d505        ..      BPL      0x8000e4c ; HAL_RCC_ClockConfig + 236
        0x08000e40:    6820         h      LDR      r0,[r4,#0]
        0x08000e42:    68e9        .h      LDR      r1,[r5,#0xc]
        0x08000e44:    f42050e0     ..P    BIC      r0,r0,#0x1c00
        0x08000e48:    4308        .C      ORRS     r0,r0,r1
        0x08000e4a:    6020         `      STR      r0,[r4,#0]
        0x08000e4c:    7828        (x      LDRB     r0,[r5,#0]
        0x08000e4e:    0700        ..      LSLS     r0,r0,#28
        0x08000e50:    d506        ..      BPL      0x8000e60 ; HAL_RCC_ClockConfig + 256
        0x08000e52:    6820         h      LDR      r0,[r4,#0]
        0x08000e54:    6929        )i      LDR      r1,[r5,#0x10]
        0x08000e56:    f4204060     .`@    BIC      r0,r0,#0xe000
        0x08000e5a:    ea4000c1    @...    ORR      r0,r0,r1,LSL #3
        0x08000e5e:    6020         `      STR      r0,[r4,#0]
        0x08000e60:    f000f838    ..8.    BL       HAL_RCC_GetSysClockFreq ; 0x8000ed4
        0x08000e64:    6821        !h      LDR      r1,[r4,#0]
        0x08000e66:    4a08        .J      LDR      r2,[pc,#32] ; [0x8000e88] = 0x800207a
        0x08000e68:    f3c11103    ....    UBFX     r1,r1,#4,#4
        0x08000e6c:    5c51        Q\      LDRB     r1,[r2,r1]
        0x08000e6e:    40c8        .@      LSRS     r0,r0,r1
        0x08000e70:    4906        .I      LDR      r1,[pc,#24] ; [0x8000e8c] = 0x2000001c
        0x08000e72:    6008        .`      STR      r0,[r1,#0]
        0x08000e74:    4806        .H      LDR      r0,[pc,#24] ; [0x8000e90] = 0x20000014
        0x08000e76:    6800        .h      LDR      r0,[r0,#0]
        0x08000e78:    f7fffefa    ....    BL       HAL_InitTick ; 0x8000c70
        0x08000e7c:    2000        .       MOVS     r0,#0
        0x08000e7e:    e7c4        ..      B        0x8000e0a ; HAL_RCC_ClockConfig + 170
    $d
        0x08000e80:    40023c00    .<.@    DCD    1073888256
        0x08000e84:    40023808    .8.@    DCD    1073887240
        0x08000e88:    0800207a    z ..    DCD    134226042
        0x08000e8c:    2000001c    ...     DCD    536870940
        0x08000e90:    20000014    ...     DCD    536870932
    $t
    i.HAL_RCC_GetPCLK1Freq
    HAL_RCC_GetPCLK1Freq
        0x08000e94:    4804        .H      LDR      r0,[pc,#16] ; [0x8000ea8] = 0x2000001c
        0x08000e96:    4905        .I      LDR      r1,[pc,#20] ; [0x8000eac] = 0x40023808
        0x08000e98:    6800        .h      LDR      r0,[r0,#0]
        0x08000e9a:    6809        .h      LDR      r1,[r1,#0]
        0x08000e9c:    4a04        .J      LDR      r2,[pc,#16] ; [0x8000eb0] = 0x800208a
        0x08000e9e:    f3c12182    ...!    UBFX     r1,r1,#10,#3
        0x08000ea2:    5c51        Q\      LDRB     r1,[r2,r1]
        0x08000ea4:    40c8        .@      LSRS     r0,r0,r1
        0x08000ea6:    4770        pG      BX       lr
    $d
        0x08000ea8:    2000001c    ...     DCD    536870940
        0x08000eac:    40023808    .8.@    DCD    1073887240
        0x08000eb0:    0800208a    . ..    DCD    134226058
    $t
    i.HAL_RCC_GetPCLK2Freq
    HAL_RCC_GetPCLK2Freq
        0x08000eb4:    4804        .H      LDR      r0,[pc,#16] ; [0x8000ec8] = 0x2000001c
        0x08000eb6:    4905        .I      LDR      r1,[pc,#20] ; [0x8000ecc] = 0x40023808
        0x08000eb8:    6800        .h      LDR      r0,[r0,#0]
        0x08000eba:    6809        .h      LDR      r1,[r1,#0]
        0x08000ebc:    4a04        .J      LDR      r2,[pc,#16] ; [0x8000ed0] = 0x800208a
        0x08000ebe:    f3c13142    ..B1    UBFX     r1,r1,#13,#3
        0x08000ec2:    5c51        Q\      LDRB     r1,[r2,r1]
        0x08000ec4:    40c8        .@      LSRS     r0,r0,r1
        0x08000ec6:    4770        pG      BX       lr
    $d
        0x08000ec8:    2000001c    ...     DCD    536870940
        0x08000ecc:    40023808    .8.@    DCD    1073887240
        0x08000ed0:    0800208a    . ..    DCD    134226058
    $t
    i.HAL_RCC_GetSysClockFreq
    HAL_RCC_GetSysClockFreq
        0x08000ed4:    4815        .H      LDR      r0,[pc,#84] ; [0x8000f2c] = 0x40023808
        0x08000ed6:    b510        ..      PUSH     {r4,lr}
        0x08000ed8:    6800        .h      LDR      r0,[r0,#0]
        0x08000eda:    f010020c    ....    ANDS     r2,r0,#0xc
        0x08000ede:    4814        .H      LDR      r0,[pc,#80] ; [0x8000f30] = 0xf42400
        0x08000ee0:    d013        ..      BEQ      0x8000f0a ; HAL_RCC_GetSysClockFreq + 54
        0x08000ee2:    4914        .I      LDR      r1,[pc,#80] ; [0x8000f34] = 0x17d7840
        0x08000ee4:    2a04        .*      CMP      r2,#4
        0x08000ee6:    d00f        ..      BEQ      0x8000f08 ; HAL_RCC_GetSysClockFreq + 52
        0x08000ee8:    2a08        .*      CMP      r2,#8
        0x08000eea:    d10e        ..      BNE      0x8000f0a ; HAL_RCC_GetSysClockFreq + 54
        0x08000eec:    4c0f        .L      LDR      r4,[pc,#60] ; [0x8000f2c] = 0x40023808
        0x08000eee:    1f24        $.      SUBS     r4,r4,#4
        0x08000ef0:    6822        "h      LDR      r2,[r4,#0]
        0x08000ef2:    6823        #h      LDR      r3,[r4,#0]
        0x08000ef4:    f002023f    ..?.    AND      r2,r2,#0x3f
        0x08000ef8:    025b        [.      LSLS     r3,r3,#9
        0x08000efa:    d507        ..      BPL      0x8000f0c ; HAL_RCC_GetSysClockFreq + 56
        0x08000efc:    6820         h      LDR      r0,[r4,#0]
        0x08000efe:    f3c01088    ....    UBFX     r0,r0,#6,#9
        0x08000f02:    fba00101    ....    UMULL    r0,r1,r0,r1
        0x08000f06:    e006        ..      B        0x8000f16 ; HAL_RCC_GetSysClockFreq + 66
        0x08000f08:    4608        .F      MOV      r0,r1
        0x08000f0a:    bd10        ..      POP      {r4,pc}
        0x08000f0c:    6821        !h      LDR      r1,[r4,#0]
        0x08000f0e:    f3c11188    ....    UBFX     r1,r1,#6,#9
        0x08000f12:    fba10100    ....    UMULL    r0,r1,r1,r0
        0x08000f16:    2300        .#      MOVS     r3,#0
        0x08000f18:    f7fff966    ..f.    BL       __aeabi_uldivmod ; 0x80001e8
        0x08000f1c:    6821        !h      LDR      r1,[r4,#0]
        0x08000f1e:    f3c14101    ...A    UBFX     r1,r1,#16,#2
        0x08000f22:    1c49        I.      ADDS     r1,r1,#1
        0x08000f24:    0049        I.      LSLS     r1,r1,#1
        0x08000f26:    fbb0f0f1    ....    UDIV     r0,r0,r1
        0x08000f2a:    bd10        ..      POP      {r4,pc}
    $d
        0x08000f2c:    40023808    .8.@    DCD    1073887240
        0x08000f30:    00f42400    .$..    DCD    16000000
        0x08000f34:    017d7840    @x}.    DCD    25000000
    $t
    i.HAL_RCC_OscConfig
    HAL_RCC_OscConfig
        0x08000f38:    e92d4ff8    -..O    PUSH     {r3-r11,lr}
        0x08000f3c:    0004        ..      MOVS     r4,r0
        0x08000f3e:    d06e        n.      BEQ      0x800101e ; HAL_RCC_OscConfig + 230
        0x08000f40:    7820         x      LDRB     r0,[r4,#0]
        0x08000f42:    f8df934c    ..L.    LDR      r9,[pc,#844] ; [0x8001290] = 0x40023804
        0x08000f46:    07c0        ..      LSLS     r0,r0,#31
        0x08000f48:    f1a90504    ....    SUB      r5,r9,#4
        0x08000f4c:    d04a        J.      BEQ      0x8000fe4 ; HAL_RCC_OscConfig + 172
        0x08000f4e:    f1090004    ....    ADD      r0,r9,#4
        0x08000f52:    6801        .h      LDR      r1,[r0,#0]
        0x08000f54:    f3c10181    ....    UBFX     r1,r1,#2,#2
        0x08000f58:    2901        .)      CMP      r1,#1
        0x08000f5a:    d008        ..      BEQ      0x8000f6e ; HAL_RCC_OscConfig + 54
        0x08000f5c:    6800        .h      LDR      r0,[r0,#0]
        0x08000f5e:    f3c00081    ....    UBFX     r0,r0,#2,#2
        0x08000f62:    2802        .(      CMP      r0,#2
        0x08000f64:    d10a        ..      BNE      0x8000f7c ; HAL_RCC_OscConfig + 68
        0x08000f66:    f8d90000    ....    LDR      r0,[r9,#0]
        0x08000f6a:    0240        @.      LSLS     r0,r0,#9
        0x08000f6c:    d506        ..      BPL      0x8000f7c ; HAL_RCC_OscConfig + 68
        0x08000f6e:    6828        (h      LDR      r0,[r5,#0]
        0x08000f70:    0380        ..      LSLS     r0,r0,#14
        0x08000f72:    d537        7.      BPL      0x8000fe4 ; HAL_RCC_OscConfig + 172
        0x08000f74:    6860        `h      LDR      r0,[r4,#4]
        0x08000f76:    2800        .(      CMP      r0,#0
        0x08000f78:    d0e1        ..      BEQ      0x8000f3e ; HAL_RCC_OscConfig + 6
        0x08000f7a:    e033        3.      B        0x8000fe4 ; HAL_RCC_OscConfig + 172
        0x08000f7c:    6860        `h      LDR      r0,[r4,#4]
        0x08000f7e:    f5b03f80    ...?    CMP      r0,#0x10000
        0x08000f82:    d010        ..      BEQ      0x8000fa6 ; HAL_RCC_OscConfig + 110
        0x08000f84:    f5b02fa0    .../    CMP      r0,#0x50000
        0x08000f88:    6828        (h      LDR      r0,[r5,#0]
        0x08000f8a:    d010        ..      BEQ      0x8000fae ; HAL_RCC_OscConfig + 118
        0x08000f8c:    f4203080     ..0    BIC      r0,r0,#0x10000
        0x08000f90:    6028        (`      STR      r0,[r5,#0]
        0x08000f92:    6828        (h      LDR      r0,[r5,#0]
        0x08000f94:    f4202080     ..     BIC      r0,r0,#0x40000
        0x08000f98:    6028        (`      STR      r0,[r5,#0]
        0x08000f9a:    6860        `h      LDR      r0,[r4,#4]
        0x08000f9c:    b1a8        ..      CBZ      r0,0x8000fca ; HAL_RCC_OscConfig + 146
        0x08000f9e:    f7fffc17    ....    BL       HAL_GetTick ; 0x80007d0
        0x08000fa2:    4606        .F      MOV      r6,r0
        0x08000fa4:    e00d        ..      B        0x8000fc2 ; HAL_RCC_OscConfig + 138
        0x08000fa6:    6828        (h      LDR      r0,[r5,#0]
        0x08000fa8:    f4403080    @..0    ORR      r0,r0,#0x10000
        0x08000fac:    e7f4        ..      B        0x8000f98 ; HAL_RCC_OscConfig + 96
        0x08000fae:    f4402080    @..     ORR      r0,r0,#0x40000
        0x08000fb2:    6028        (`      STR      r0,[r5,#0]
        0x08000fb4:    e7f7        ..      B        0x8000fa6 ; HAL_RCC_OscConfig + 110
        0x08000fb6:    bf00        ..      NOP      
        0x08000fb8:    f7fffc0a    ....    BL       HAL_GetTick ; 0x80007d0
        0x08000fbc:    1b80        ..      SUBS     r0,r0,r6
        0x08000fbe:    2864        d(      CMP      r0,#0x64
        0x08000fc0:    d873        s.      BHI      0x80010aa ; HAL_RCC_OscConfig + 370
        0x08000fc2:    6828        (h      LDR      r0,[r5,#0]
        0x08000fc4:    0380        ..      LSLS     r0,r0,#14
        0x08000fc6:    d5f7        ..      BPL      0x8000fb8 ; HAL_RCC_OscConfig + 128
        0x08000fc8:    e00c        ..      B        0x8000fe4 ; HAL_RCC_OscConfig + 172
        0x08000fca:    f7fffc01    ....    BL       HAL_GetTick ; 0x80007d0
        0x08000fce:    4606        .F      MOV      r6,r0
        0x08000fd0:    e005        ..      B        0x8000fde ; HAL_RCC_OscConfig + 166
        0x08000fd2:    bf00        ..      NOP      
        0x08000fd4:    f7fffbfc    ....    BL       HAL_GetTick ; 0x80007d0
        0x08000fd8:    1b80        ..      SUBS     r0,r0,r6
        0x08000fda:    2864        d(      CMP      r0,#0x64
        0x08000fdc:    d8f0        ..      BHI      0x8000fc0 ; HAL_RCC_OscConfig + 136
        0x08000fde:    6828        (h      LDR      r0,[r5,#0]
        0x08000fe0:    0380        ..      LSLS     r0,r0,#14
        0x08000fe2:    d4f7        ..      BMI      0x8000fd4 ; HAL_RCC_OscConfig + 156
        0x08000fe4:    7820         x      LDRB     r0,[r4,#0]
        0x08000fe6:    f8df82ac    ....    LDR      r8,[pc,#684] ; [0x8001294] = 0x42470000
        0x08000fea:    0780        ..      LSLS     r0,r0,#30
        0x08000fec:    f04f0a00    O...    MOV      r10,#0
        0x08000ff0:    d53e        >.      BPL      0x8001070 ; HAL_RCC_OscConfig + 312
        0x08000ff2:    48a7        .H      LDR      r0,[pc,#668] ; [0x8001290] = 0x40023804
        0x08000ff4:    1d00        ..      ADDS     r0,r0,#4
        0x08000ff6:    6801        .h      LDR      r1,[r0,#0]
        0x08000ff8:    f0110f0c    ....    TST      r1,#0xc
        0x08000ffc:    d008        ..      BEQ      0x8001010 ; HAL_RCC_OscConfig + 216
        0x08000ffe:    6800        .h      LDR      r0,[r0,#0]
        0x08001000:    f3c00081    ....    UBFX     r0,r0,#2,#2
        0x08001004:    2802        .(      CMP      r0,#2
        0x08001006:    d10b        ..      BNE      0x8001020 ; HAL_RCC_OscConfig + 232
        0x08001008:    f8d90000    ....    LDR      r0,[r9,#0]
        0x0800100c:    0240        @.      LSLS     r0,r0,#9
        0x0800100e:    d407        ..      BMI      0x8001020 ; HAL_RCC_OscConfig + 232
        0x08001010:    6828        (h      LDR      r0,[r5,#0]
        0x08001012:    0780        ..      LSLS     r0,r0,#30
        0x08001014:    d516        ..      BPL      0x8001044 ; HAL_RCC_OscConfig + 268
        0x08001016:    68e0        .h      LDR      r0,[r4,#0xc]
        0x08001018:    2801        .(      CMP      r0,#1
        0x0800101a:    d100        ..      BNE      0x800101e ; HAL_RCC_OscConfig + 230
        0x0800101c:    e012        ..      B        0x8001044 ; HAL_RCC_OscConfig + 268
        0x0800101e:    e133        3.      B        0x8001288 ; HAL_RCC_OscConfig + 848
        0x08001020:    68e0        .h      LDR      r0,[r4,#0xc]
        0x08001022:    b1b8        ..      CBZ      r0,0x8001054 ; HAL_RCC_OscConfig + 284
        0x08001024:    2001        .       MOVS     r0,#1
        0x08001026:    f8c80000    ....    STR      r0,[r8,#0]
        0x0800102a:    f7fffbd1    ....    BL       HAL_GetTick ; 0x80007d0
        0x0800102e:    4606        .F      MOV      r6,r0
        0x08001030:    e005        ..      B        0x800103e ; HAL_RCC_OscConfig + 262
        0x08001032:    bf00        ..      NOP      
        0x08001034:    f7fffbcc    ....    BL       HAL_GetTick ; 0x80007d0
        0x08001038:    1b80        ..      SUBS     r0,r0,r6
        0x0800103a:    2802        .(      CMP      r0,#2
        0x0800103c:    d8c0        ..      BHI      0x8000fc0 ; HAL_RCC_OscConfig + 136
        0x0800103e:    6828        (h      LDR      r0,[r5,#0]
        0x08001040:    0780        ..      LSLS     r0,r0,#30
        0x08001042:    d5f7        ..      BPL      0x8001034 ; HAL_RCC_OscConfig + 252
        0x08001044:    6828        (h      LDR      r0,[r5,#0]
        0x08001046:    6921        !i      LDR      r1,[r4,#0x10]
        0x08001048:    f02000f8     ...    BIC      r0,r0,#0xf8
        0x0800104c:    ea4000c1    @...    ORR      r0,r0,r1,LSL #3
        0x08001050:    6028        (`      STR      r0,[r5,#0]
        0x08001052:    e00d        ..      B        0x8001070 ; HAL_RCC_OscConfig + 312
        0x08001054:    f8c8a000    ....    STR      r10,[r8,#0]
        0x08001058:    f7fffbba    ....    BL       HAL_GetTick ; 0x80007d0
        0x0800105c:    4606        .F      MOV      r6,r0
        0x0800105e:    e004        ..      B        0x800106a ; HAL_RCC_OscConfig + 306
        0x08001060:    f7fffbb6    ....    BL       HAL_GetTick ; 0x80007d0
        0x08001064:    1b80        ..      SUBS     r0,r0,r6
        0x08001066:    2802        .(      CMP      r0,#2
        0x08001068:    d81f        ..      BHI      0x80010aa ; HAL_RCC_OscConfig + 370
        0x0800106a:    6828        (h      LDR      r0,[r5,#0]
        0x0800106c:    0780        ..      LSLS     r0,r0,#30
        0x0800106e:    d4f7        ..      BMI      0x8001060 ; HAL_RCC_OscConfig + 296
        0x08001070:    7820         x      LDRB     r0,[r4,#0]
        0x08001072:    0700        ..      LSLS     r0,r0,#28
        0x08001074:    d522        ".      BPL      0x80010bc ; HAL_RCC_OscConfig + 388
        0x08001076:    4f86        .O      LDR      r7,[pc,#536] ; [0x8001290] = 0x40023804
        0x08001078:    4887        .H      LDR      r0,[pc,#540] ; [0x8001298] = 0x42470e80
        0x0800107a:    6961        ai      LDR      r1,[r4,#0x14]
        0x0800107c:    3770        p7      ADDS     r7,r7,#0x70
        0x0800107e:    b171        q.      CBZ      r1,0x800109e ; HAL_RCC_OscConfig + 358
        0x08001080:    2101        .!      MOVS     r1,#1
        0x08001082:    6001        .`      STR      r1,[r0,#0]
        0x08001084:    f7fffba4    ....    BL       HAL_GetTick ; 0x80007d0
        0x08001088:    4606        .F      MOV      r6,r0
        0x0800108a:    e004        ..      B        0x8001096 ; HAL_RCC_OscConfig + 350
        0x0800108c:    f7fffba0    ....    BL       HAL_GetTick ; 0x80007d0
        0x08001090:    1b80        ..      SUBS     r0,r0,r6
        0x08001092:    2802        .(      CMP      r0,#2
        0x08001094:    d809        ..      BHI      0x80010aa ; HAL_RCC_OscConfig + 370
        0x08001096:    6838        8h      LDR      r0,[r7,#0]
        0x08001098:    0780        ..      LSLS     r0,r0,#30
        0x0800109a:    d5f7        ..      BPL      0x800108c ; HAL_RCC_OscConfig + 340
        0x0800109c:    e00e        ..      B        0x80010bc ; HAL_RCC_OscConfig + 388
        0x0800109e:    f8c0a000    ....    STR      r10,[r0,#0]
        0x080010a2:    f7fffb95    ....    BL       HAL_GetTick ; 0x80007d0
        0x080010a6:    4606        .F      MOV      r6,r0
        0x080010a8:    e005        ..      B        0x80010b6 ; HAL_RCC_OscConfig + 382
        0x080010aa:    e082        ..      B        0x80011b2 ; HAL_RCC_OscConfig + 634
        0x080010ac:    f7fffb90    ....    BL       HAL_GetTick ; 0x80007d0
        0x080010b0:    1b80        ..      SUBS     r0,r0,r6
        0x080010b2:    2802        .(      CMP      r0,#2
        0x080010b4:    d87d        }.      BHI      0x80011b2 ; HAL_RCC_OscConfig + 634
        0x080010b6:    6838        8h      LDR      r0,[r7,#0]
        0x080010b8:    0780        ..      LSLS     r0,r0,#30
        0x080010ba:    d4f7        ..      BMI      0x80010ac ; HAL_RCC_OscConfig + 372
        0x080010bc:    7820         x      LDRB     r0,[r4,#0]
        0x080010be:    0740        @.      LSLS     r0,r0,#29
        0x080010c0:    d568        h.      BPL      0x8001194 ; HAL_RCC_OscConfig + 604
        0x080010c2:    f8dfb1cc    ....    LDR      r11,[pc,#460] ; [0x8001290] = 0x40023804
        0x080010c6:    2700        .'      MOVS     r7,#0
        0x080010c8:    f10b0b3c    ..<.    ADD      r11,r11,#0x3c
        0x080010cc:    f8db0000    ....    LDR      r0,[r11,#0]
        0x080010d0:    00c0        ..      LSLS     r0,r0,#3
        0x080010d2:    d40b        ..      BMI      0x80010ec ; HAL_RCC_OscConfig + 436
        0x080010d4:    f8db1000    ....    LDR      r1,[r11,#0]
        0x080010d8:    f0415180    A..Q    ORR      r1,r1,#0x10000000
        0x080010dc:    f8cb1000    ....    STR      r1,[r11,#0]
        0x080010e0:    f8db0000    ....    LDR      r0,[r11,#0]
        0x080010e4:    2701        .'      MOVS     r7,#1
        0x080010e6:    f0005080    ...P    AND      r0,r0,#0x10000000
        0x080010ea:    9000        ..      STR      r0,[sp,#0]
        0x080010ec:    4e6b        kN      LDR      r6,[pc,#428] ; [0x800129c] = 0x40007000
        0x080010ee:    6830        0h      LDR      r0,[r6,#0]
        0x080010f0:    05c0        ..      LSLS     r0,r0,#23
        0x080010f2:    d410        ..      BMI      0x8001116 ; HAL_RCC_OscConfig + 478
        0x080010f4:    6830        0h      LDR      r0,[r6,#0]
        0x080010f6:    f4407080    @..p    ORR      r0,r0,#0x100
        0x080010fa:    6030        0`      STR      r0,[r6,#0]
        0x080010fc:    f7fffb68    ..h.    BL       HAL_GetTick ; 0x80007d0
        0x08001100:    9000        ..      STR      r0,[sp,#0]
        0x08001102:    e005        ..      B        0x8001110 ; HAL_RCC_OscConfig + 472
        0x08001104:    f7fffb64    ..d.    BL       HAL_GetTick ; 0x80007d0
        0x08001108:    9900        ..      LDR      r1,[sp,#0]
        0x0800110a:    1a40        @.      SUBS     r0,r0,r1
        0x0800110c:    2802        .(      CMP      r0,#2
        0x0800110e:    d850        P.      BHI      0x80011b2 ; HAL_RCC_OscConfig + 634
        0x08001110:    6830        0h      LDR      r0,[r6,#0]
        0x08001112:    05c0        ..      LSLS     r0,r0,#23
        0x08001114:    d5f6        ..      BPL      0x8001104 ; HAL_RCC_OscConfig + 460
        0x08001116:    4e5e        ^N      LDR      r6,[pc,#376] ; [0x8001290] = 0x40023804
        0x08001118:    68a0        .h      LDR      r0,[r4,#8]
        0x0800111a:    366c        l6      ADDS     r6,r6,#0x6c
        0x0800111c:    2801        .(      CMP      r0,#1
        0x0800111e:    d00f        ..      BEQ      0x8001140 ; HAL_RCC_OscConfig + 520
        0x08001120:    2805        .(      CMP      r0,#5
        0x08001122:    6830        0h      LDR      r0,[r6,#0]
        0x08001124:    d010        ..      BEQ      0x8001148 ; HAL_RCC_OscConfig + 528
        0x08001126:    f0200001     ...    BIC      r0,r0,#1
        0x0800112a:    6030        0`      STR      r0,[r6,#0]
        0x0800112c:    6830        0h      LDR      r0,[r6,#0]
        0x0800112e:    f0200004     ...    BIC      r0,r0,#4
        0x08001132:    6030        0`      STR      r0,[r6,#0]
        0x08001134:    68a0        .h      LDR      r0,[r4,#8]
        0x08001136:    b1b8        ..      CBZ      r0,0x8001168 ; HAL_RCC_OscConfig + 560
        0x08001138:    f7fffb4a    ..J.    BL       HAL_GetTick ; 0x80007d0
        0x0800113c:    9000        ..      STR      r0,[sp,#0]
        0x0800113e:    e00f        ..      B        0x8001160 ; HAL_RCC_OscConfig + 552
        0x08001140:    6830        0h      LDR      r0,[r6,#0]
        0x08001142:    f0400001    @...    ORR      r0,r0,#1
        0x08001146:    e7f4        ..      B        0x8001132 ; HAL_RCC_OscConfig + 506
        0x08001148:    f0400004    @...    ORR      r0,r0,#4
        0x0800114c:    6030        0`      STR      r0,[r6,#0]
        0x0800114e:    e7f7        ..      B        0x8001140 ; HAL_RCC_OscConfig + 520
        0x08001150:    f7fffb3e    ..>.    BL       HAL_GetTick ; 0x80007d0
        0x08001154:    9900        ..      LDR      r1,[sp,#0]
        0x08001156:    1a41        A.      SUBS     r1,r0,r1
        0x08001158:    f2413088    A..0    MOV      r0,#0x1388
        0x0800115c:    4281        .B      CMP      r1,r0
        0x0800115e:    d866        f.      BHI      0x800122e ; HAL_RCC_OscConfig + 758
        0x08001160:    6830        0h      LDR      r0,[r6,#0]
        0x08001162:    0780        ..      LSLS     r0,r0,#30
        0x08001164:    d5f4        ..      BPL      0x8001150 ; HAL_RCC_OscConfig + 536
        0x08001166:    e00e        ..      B        0x8001186 ; HAL_RCC_OscConfig + 590
        0x08001168:    f7fffb32    ..2.    BL       HAL_GetTick ; 0x80007d0
        0x0800116c:    9000        ..      STR      r0,[sp,#0]
        0x0800116e:    e007        ..      B        0x8001180 ; HAL_RCC_OscConfig + 584
        0x08001170:    f7fffb2e    ....    BL       HAL_GetTick ; 0x80007d0
        0x08001174:    9900        ..      LDR      r1,[sp,#0]
        0x08001176:    1a41        A.      SUBS     r1,r0,r1
        0x08001178:    f2413088    A..0    MOV      r0,#0x1388
        0x0800117c:    4281        .B      CMP      r1,r0
        0x0800117e:    d856        V.      BHI      0x800122e ; HAL_RCC_OscConfig + 758
        0x08001180:    6830        0h      LDR      r0,[r6,#0]
        0x08001182:    0780        ..      LSLS     r0,r0,#30
        0x08001184:    d4f4        ..      BMI      0x8001170 ; HAL_RCC_OscConfig + 568
        0x08001186:    b12f        /.      CBZ      r7,0x8001194 ; HAL_RCC_OscConfig + 604
        0x08001188:    f8db1000    ....    LDR      r1,[r11,#0]
        0x0800118c:    f0215180    !..Q    BIC      r1,r1,#0x10000000
        0x08001190:    f8cb1000    ....    STR      r1,[r11,#0]
        0x08001194:    69a0        .i      LDR      r0,[r4,#0x18]
        0x08001196:    b3c8        ..      CBZ      r0,0x800120c ; HAL_RCC_OscConfig + 724
        0x08001198:    493d        =I      LDR      r1,[pc,#244] ; [0x8001290] = 0x40023804
        0x0800119a:    1d09        ..      ADDS     r1,r1,#4
        0x0800119c:    6809        .h      LDR      r1,[r1,#0]
        0x0800119e:    f3c10181    ....    UBFX     r1,r1,#2,#2
        0x080011a2:    2902        .)      CMP      r1,#2
        0x080011a4:    d04a        J.      BEQ      0x800123c ; HAL_RCC_OscConfig + 772
        0x080011a6:    2802        .(      CMP      r0,#2
        0x080011a8:    4650        PF      MOV      r0,r10
        0x080011aa:    d007        ..      BEQ      0x80011bc ; HAL_RCC_OscConfig + 644
        0x080011ac:    f8c80060    ..`.    STR      r0,[r8,#0x60]
        0x080011b0:    e000        ..      B        0x80011b4 ; HAL_RCC_OscConfig + 636
        0x080011b2:    e03c        <.      B        0x800122e ; HAL_RCC_OscConfig + 758
        0x080011b4:    f7fffb0c    ....    BL       HAL_GetTick ; 0x80007d0
        0x080011b8:    4604        .F      MOV      r4,r0
        0x080011ba:    e03b        ;.      B        0x8001234 ; HAL_RCC_OscConfig + 764
        0x080011bc:    4647        GF      MOV      r7,r8
        0x080011be:    f8c80060    ..`.    STR      r0,[r8,#0x60]
        0x080011c2:    f7fffb05    ....    BL       HAL_GetTick ; 0x80007d0
        0x080011c6:    4606        .F      MOV      r6,r0
        0x080011c8:    e005        ..      B        0x80011d6 ; HAL_RCC_OscConfig + 670
        0x080011ca:    bf00        ..      NOP      
        0x080011cc:    f7fffb00    ....    BL       HAL_GetTick ; 0x80007d0
        0x080011d0:    1b80        ..      SUBS     r0,r0,r6
        0x080011d2:    2802        .(      CMP      r0,#2
        0x080011d4:    d82b        +.      BHI      0x800122e ; HAL_RCC_OscConfig + 758
        0x080011d6:    6828        (h      LDR      r0,[r5,#0]
        0x080011d8:    0180        ..      LSLS     r0,r0,#6
        0x080011da:    d4f7        ..      BMI      0x80011cc ; HAL_RCC_OscConfig + 660
        0x080011dc:    e9d40107    ....    LDRD     r0,r1,[r4,#0x1c]
        0x080011e0:    4308        .C      ORRS     r0,r0,r1
        0x080011e2:    6aa1        .j      LDR      r1,[r4,#0x28]
        0x080011e4:    4a2e        .J      LDR      r2,[pc,#184] ; [0x80012a0] = 0xffff0000
        0x080011e6:    0849        I.      LSRS     r1,r1,#1
        0x080011e8:    eb024101    ...A    ADD      r1,r2,r1,LSL #16
        0x080011ec:    6a62        bj      LDR      r2,[r4,#0x24]
        0x080011ee:    ea411182    A...    ORR      r1,r1,r2,LSL #6
        0x080011f2:    4308        .C      ORRS     r0,r0,r1
        0x080011f4:    f894102c    ..,.    LDRB     r1,[r4,#0x2c]
        0x080011f8:    ea406101    @..a    ORR      r1,r0,r1,LSL #24
        0x080011fc:    f8c91000    ....    STR      r1,[r9,#0]
        0x08001200:    2001        .       MOVS     r0,#1
        0x08001202:    6638        8f      STR      r0,[r7,#0x60]
        0x08001204:    f7fffae4    ....    BL       HAL_GetTick ; 0x80007d0
        0x08001208:    4604        .F      MOV      r4,r0
        0x0800120a:    e006        ..      B        0x800121a ; HAL_RCC_OscConfig + 738
        0x0800120c:    e03e        >.      B        0x800128c ; HAL_RCC_OscConfig + 852
        0x0800120e:    bf00        ..      NOP      
        0x08001210:    f7fffade    ....    BL       HAL_GetTick ; 0x80007d0
        0x08001214:    1b00        ..      SUBS     r0,r0,r4
        0x08001216:    2802        .(      CMP      r0,#2
        0x08001218:    d809        ..      BHI      0x800122e ; HAL_RCC_OscConfig + 758
        0x0800121a:    6828        (h      LDR      r0,[r5,#0]
        0x0800121c:    0180        ..      LSLS     r0,r0,#6
        0x0800121e:    d5f7        ..      BPL      0x8001210 ; HAL_RCC_OscConfig + 728
        0x08001220:    e034        4.      B        0x800128c ; HAL_RCC_OscConfig + 852
        0x08001222:    bf00        ..      NOP      
        0x08001224:    f7fffad4    ....    BL       HAL_GetTick ; 0x80007d0
        0x08001228:    1b00        ..      SUBS     r0,r0,r4
        0x0800122a:    2802        .(      CMP      r0,#2
        0x0800122c:    d902        ..      BLS      0x8001234 ; HAL_RCC_OscConfig + 764
        0x0800122e:    2003        .       MOVS     r0,#3
        0x08001230:    e8bd8ff8    ....    POP      {r3-r11,pc}
        0x08001234:    6828        (h      LDR      r0,[r5,#0]
        0x08001236:    0180        ..      LSLS     r0,r0,#6
        0x08001238:    d4f4        ..      BMI      0x8001224 ; HAL_RCC_OscConfig + 748
        0x0800123a:    e027        '.      B        0x800128c ; HAL_RCC_OscConfig + 852
        0x0800123c:    2801        .(      CMP      r0,#1
        0x0800123e:    d0f7        ..      BEQ      0x8001230 ; HAL_RCC_OscConfig + 760
        0x08001240:    f8d90000    ....    LDR      r0,[r9,#0]
        0x08001244:    69e2        .i      LDR      r2,[r4,#0x1c]
        0x08001246:    f4000180    ....    AND      r1,r0,#0x400000
        0x0800124a:    4291        .B      CMP      r1,r2
        0x0800124c:    d11c        ..      BNE      0x8001288 ; HAL_RCC_OscConfig + 848
        0x0800124e:    6a22        "j      LDR      r2,[r4,#0x20]
        0x08001250:    f000013f    ..?.    AND      r1,r0,#0x3f
        0x08001254:    4291        .B      CMP      r1,r2
        0x08001256:    d117        ..      BNE      0x8001288 ; HAL_RCC_OscConfig + 848
        0x08001258:    f64771c0    G..q    MOV      r1,#0x7fc0
        0x0800125c:    6a62        bj      LDR      r2,[r4,#0x24]
        0x0800125e:    4001        .@      ANDS     r1,r1,r0
        0x08001260:    ebb11f82    ....    CMP      r1,r2,LSL #6
        0x08001264:    d110        ..      BNE      0x8001288 ; HAL_RCC_OscConfig + 848
        0x08001266:    6aa2        .j      LDR      r2,[r4,#0x28]
        0x08001268:    f04f33ff    O..3    MOV      r3,#0xffffffff
        0x0800126c:    f4003140    ..@1    AND      r1,r0,#0x30000
        0x08001270:    eb030252    ..R.    ADD      r2,r3,r2,LSR #1
        0x08001274:    ebb14f02    ...O    CMP      r1,r2,LSL #16
        0x08001278:    d106        ..      BNE      0x8001288 ; HAL_RCC_OscConfig + 848
        0x0800127a:    f894102c    ..,.    LDRB     r1,[r4,#0x2c]
        0x0800127e:    f0006070    ..p`    AND      r0,r0,#0xf000000
        0x08001282:    ebb06f01    ...o    CMP      r0,r1,LSL #24
        0x08001286:    d001        ..      BEQ      0x800128c ; HAL_RCC_OscConfig + 852
        0x08001288:    2001        .       MOVS     r0,#1
        0x0800128a:    e7d1        ..      B        0x8001230 ; HAL_RCC_OscConfig + 760
        0x0800128c:    2000        .       MOVS     r0,#0
        0x0800128e:    e7cf        ..      B        0x8001230 ; HAL_RCC_OscConfig + 760
    $d
        0x08001290:    40023804    .8.@    DCD    1073887236
        0x08001294:    42470000    ..GB    DCD    1111949312
        0x08001298:    42470e80    ..GB    DCD    1111953024
        0x0800129c:    40007000    .p.@    DCD    1073770496
        0x080012a0:    ffff0000    ....    DCD    4294901760
    $t
    i.HAL_SYSTICK_Config
    HAL_SYSTICK_Config
        0x080012a4:    b510        ..      PUSH     {r4,lr}
        0x080012a6:    1e40        @.      SUBS     r0,r0,#1
        0x080012a8:    f1b07f80    ....    CMP      r0,#0x1000000
        0x080012ac:    d301        ..      BCC      0x80012b2 ; HAL_SYSTICK_Config + 14
        0x080012ae:    2001        .       MOVS     r0,#1
        0x080012b0:    bd10        ..      POP      {r4,pc}
        0x080012b2:    f04f24e0    O..$    MOV      r4,#0xe000e000
        0x080012b6:    6160        `a      STR      r0,[r4,#0x14]
        0x080012b8:    210f        .!      MOVS     r1,#0xf
        0x080012ba:    1760        `.      ASRS     r0,r4,#29
        0x080012bc:    f000fd9c    ....    BL       __NVIC_SetPriority ; 0x8001df8
        0x080012c0:    2000        .       MOVS     r0,#0
        0x080012c2:    61a0        .a      STR      r0,[r4,#0x18]
        0x080012c4:    2007        .       MOVS     r0,#7
        0x080012c6:    6120         a      STR      r0,[r4,#0x10]
        0x080012c8:    2000        .       MOVS     r0,#0
        0x080012ca:    bd10        ..      POP      {r4,pc}
    i.HAL_UART_Init
    HAL_UART_Init
        0x080012cc:    b570        p.      PUSH     {r4-r6,lr}
        0x080012ce:    0004        ..      MOVS     r4,r0
        0x080012d0:    d004        ..      BEQ      0x80012dc ; HAL_UART_Init + 16
        0x080012d2:    f8940041    ..A.    LDRB     r0,[r4,#0x41]
        0x080012d6:    2500        .%      MOVS     r5,#0
        0x080012d8:    b110        ..      CBZ      r0,0x80012e0 ; HAL_UART_Init + 20
        0x080012da:    e006        ..      B        0x80012ea ; HAL_UART_Init + 30
        0x080012dc:    2001        .       MOVS     r0,#1
        0x080012de:    bd70        p.      POP      {r4-r6,pc}
        0x080012e0:    f8845040    ..@P    STRB     r5,[r4,#0x40]
        0x080012e4:    4620         F      MOV      r0,r4
        0x080012e6:    f000f823    ..#.    BL       HAL_UART_MspInit ; 0x8001330
        0x080012ea:    2024        $       MOVS     r0,#0x24
        0x080012ec:    f8840041    ..A.    STRB     r0,[r4,#0x41]
        0x080012f0:    6820         h      LDR      r0,[r4,#0]
        0x080012f2:    68c1        .h      LDR      r1,[r0,#0xc]
        0x080012f4:    f4215100    !..Q    BIC      r1,r1,#0x2000
        0x080012f8:    60c1        .`      STR      r1,[r0,#0xc]
        0x080012fa:    4620         F      MOV      r0,r4
        0x080012fc:    f000fcbc    ....    BL       UART_SetConfig ; 0x8001c78
        0x08001300:    6820         h      LDR      r0,[r4,#0]
        0x08001302:    6901        .i      LDR      r1,[r0,#0x10]
        0x08001304:    f4214190    !..A    BIC      r1,r1,#0x4800
        0x08001308:    6101        .a      STR      r1,[r0,#0x10]
        0x0800130a:    6820         h      LDR      r0,[r4,#0]
        0x0800130c:    6941        Ai      LDR      r1,[r0,#0x14]
        0x0800130e:    f021012a    !.*.    BIC      r1,r1,#0x2a
        0x08001312:    6141        Aa      STR      r1,[r0,#0x14]
        0x08001314:    6820         h      LDR      r0,[r4,#0]
        0x08001316:    68c1        .h      LDR      r1,[r0,#0xc]
        0x08001318:    f4415100    A..Q    ORR      r1,r1,#0x2000
        0x0800131c:    60c1        .`      STR      r1,[r0,#0xc]
        0x0800131e:    6465        ed      STR      r5,[r4,#0x44]
        0x08001320:    2020                MOVS     r0,#0x20
        0x08001322:    f8840041    ..A.    STRB     r0,[r4,#0x41]
        0x08001326:    f8840042    ..B.    STRB     r0,[r4,#0x42]
        0x0800132a:    6365        ec      STR      r5,[r4,#0x34]
        0x0800132c:    2000        .       MOVS     r0,#0
        0x0800132e:    bd70        p.      POP      {r4-r6,pc}
    i.HAL_UART_MspInit
    HAL_UART_MspInit
        0x08001330:    b510        ..      PUSH     {r4,lr}
        0x08001332:    b086        ..      SUB      sp,sp,#0x18
        0x08001334:    4604        .F      MOV      r4,r0
        0x08001336:    2114        .!      MOVS     r1,#0x14
        0x08001338:    4668        hF      MOV      r0,sp
        0x0800133a:    f7feff8d    ....    BL       __aeabi_memclr ; 0x8000258
        0x0800133e:    4914        .I      LDR      r1,[pc,#80] ; [0x8001390] = 0x40011000
        0x08001340:    6820         h      LDR      r0,[r4,#0]
        0x08001342:    4288        .B      CMP      r0,r1
        0x08001344:    d121        !.      BNE      0x800138a ; HAL_UART_MspInit + 90
        0x08001346:    4813        .H      LDR      r0,[pc,#76] ; [0x8001394] = 0x40023844
        0x08001348:    2100        .!      MOVS     r1,#0
        0x0800134a:    6802        .h      LDR      r2,[r0,#0]
        0x0800134c:    f0420210    B...    ORR      r2,r2,#0x10
        0x08001350:    6002        .`      STR      r2,[r0,#0]
        0x08001352:    6800        .h      LDR      r0,[r0,#0]
        0x08001354:    f0000010    ....    AND      r0,r0,#0x10
        0x08001358:    9005        ..      STR      r0,[sp,#0x14]
        0x0800135a:    480e        .H      LDR      r0,[pc,#56] ; [0x8001394] = 0x40023844
        0x0800135c:    3814        .8      SUBS     r0,r0,#0x14
        0x0800135e:    6802        .h      LDR      r2,[r0,#0]
        0x08001360:    f0420201    B...    ORR      r2,r2,#1
        0x08001364:    6002        .`      STR      r2,[r0,#0]
        0x08001366:    6800        .h      LDR      r0,[r0,#0]
        0x08001368:    f0000001    ....    AND      r0,r0,#1
        0x0800136c:    9005        ..      STR      r0,[sp,#0x14]
        0x0800136e:    f44f60c0    O..`    MOV      r0,#0x600
        0x08001372:    9000        ..      STR      r0,[sp,#0]
        0x08001374:    2002        .       MOVS     r0,#2
        0x08001376:    e9cd0101    ....    STRD     r0,r1,[sp,#4]
        0x0800137a:    2003        .       MOVS     r0,#3
        0x0800137c:    9003        ..      STR      r0,[sp,#0xc]
        0x0800137e:    2007        .       MOVS     r0,#7
        0x08001380:    9004        ..      STR      r0,[sp,#0x10]
        0x08001382:    4669        iF      MOV      r1,sp
        0x08001384:    4804        .H      LDR      r0,[pc,#16] ; [0x8001398] = 0x40020000
        0x08001386:    f7fff921    ..!.    BL       HAL_GPIO_Init ; 0x80005cc
        0x0800138a:    b006        ..      ADD      sp,sp,#0x18
        0x0800138c:    bd10        ..      POP      {r4,pc}
    $d
        0x0800138e:    0000        ..      DCW    0
        0x08001390:    40011000    ...@    DCD    1073811456
        0x08001394:    40023844    D8.@    DCD    1073887300
        0x08001398:    40020000    ...@    DCD    1073872896
    $t
    i.HAL_UART_Receive
    HAL_UART_Receive
        0x0800139c:    e92d4ff8    -..O    PUSH     {r3-r11,lr}
        0x080013a0:    4604        .F      MOV      r4,r0
        0x080013a2:    f8900042    ..B.    LDRB     r0,[r0,#0x42]
        0x080013a6:    469a        .F      MOV      r10,r3
        0x080013a8:    4616        .F      MOV      r6,r2
        0x080013aa:    460d        .F      MOV      r5,r1
        0x080013ac:    2820         (      CMP      r0,#0x20
        0x080013ae:    d002        ..      BEQ      0x80013b6 ; HAL_UART_Receive + 26
        0x080013b0:    2002        .       MOVS     r0,#2
        0x080013b2:    e8bd8ff8    ....    POP      {r3-r11,pc}
        0x080013b6:    b1b5        ..      CBZ      r5,0x80013e6 ; HAL_UART_Receive + 74
        0x080013b8:    b1ae        ..      CBZ      r6,0x80013e6 ; HAL_UART_Receive + 74
        0x080013ba:    2000        .       MOVS     r0,#0
        0x080013bc:    6460        `d      STR      r0,[r4,#0x44]
        0x080013be:    2122        "!      MOVS     r1,#0x22
        0x080013c0:    f8841042    ..B.    STRB     r1,[r4,#0x42]
        0x080013c4:    6320         c      STR      r0,[r4,#0x30]
        0x080013c6:    f7fffa03    ....    BL       HAL_GetTick ; 0x80007d0
        0x080013ca:    85a6        ..      STRH     r6,[r4,#0x2c]
        0x080013cc:    4681        .F      MOV      r9,r0
        0x080013ce:    85e6        ..      STRH     r6,[r4,#0x2e]
        0x080013d0:    68a0        .h      LDR      r0,[r4,#8]
        0x080013d2:    f44f5880    O..X    MOV      r8,#0x1000
        0x080013d6:    2720         '      MOVS     r7,#0x20
        0x080013d8:    4540        @E      CMP      r0,r8
        0x080013da:    d101        ..      BNE      0x80013e0 ; HAL_UART_Receive + 68
        0x080013dc:    6920         i      LDR      r0,[r4,#0x10]
        0x080013de:    b120         .      CBZ      r0,0x80013ea ; HAL_UART_Receive + 78
        0x080013e0:    462e        .F      MOV      r6,r5
        0x080013e2:    2500        .%      MOVS     r5,#0
        0x080013e4:    e029        ).      B        0x800143a ; HAL_UART_Receive + 158
        0x080013e6:    2001        .       MOVS     r0,#1
        0x080013e8:    e7e3        ..      B        0x80013b2 ; HAL_UART_Receive + 22
        0x080013ea:    2600        .&      MOVS     r6,#0
        0x080013ec:    e025        %.      B        0x800143a ; HAL_UART_Receive + 158
        0x080013ee:    464b        KF      MOV      r3,r9
        0x080013f0:    2200        ."      MOVS     r2,#0
        0x080013f2:    2120         !      MOVS     r1,#0x20
        0x080013f4:    4620         F      MOV      r0,r4
        0x080013f6:    f8cda000    ....    STR      r10,[sp,#0]
        0x080013fa:    f000fcc3    ....    BL       UART_WaitOnFlagUntilTimeout ; 0x8001d84
        0x080013fe:    b118        ..      CBZ      r0,0x8001408 ; HAL_UART_Receive + 108
        0x08001400:    f8847042    ..Bp    STRB     r7,[r4,#0x42]
        0x08001404:    2003        .       MOVS     r0,#3
        0x08001406:    e7d4        ..      B        0x80013b2 ; HAL_UART_Receive + 22
        0x08001408:    b126        &.      CBZ      r6,0x8001414 ; HAL_UART_Receive + 120
        0x0800140a:    68a0        .h      LDR      r0,[r4,#8]
        0x0800140c:    4540        @E      CMP      r0,r8
        0x0800140e:    d01a        ..      BEQ      0x8001446 ; HAL_UART_Receive + 170
        0x08001410:    b138        8.      CBZ      r0,0x8001422 ; HAL_UART_Receive + 134
        0x08001412:    e008        ..      B        0x8001426 ; HAL_UART_Receive + 138
        0x08001414:    6820         h      LDR      r0,[r4,#0]
        0x08001416:    6840        @h      LDR      r0,[r0,#4]
        0x08001418:    f3c00008    ....    UBFX     r0,r0,#0,#9
        0x0800141c:    f8250b02    %...    STRH     r0,[r5],#2
        0x08001420:    e008        ..      B        0x8001434 ; HAL_UART_Receive + 152
        0x08001422:    6920         i      LDR      r0,[r4,#0x10]
        0x08001424:    b178        x.      CBZ      r0,0x8001446 ; HAL_UART_Receive + 170
        0x08001426:    6820         h      LDR      r0,[r4,#0]
        0x08001428:    6840        @h      LDR      r0,[r0,#4]
        0x0800142a:    f000007f    ....    AND      r0,r0,#0x7f
        0x0800142e:    bf00        ..      NOP      
        0x08001430:    f8060b01    ....    STRB     r0,[r6],#1
        0x08001434:    8de0        ..      LDRH     r0,[r4,#0x2e]
        0x08001436:    1e40        @.      SUBS     r0,r0,#1
        0x08001438:    85e0        ..      STRH     r0,[r4,#0x2e]
        0x0800143a:    8de0        ..      LDRH     r0,[r4,#0x2e]
        0x0800143c:    2800        .(      CMP      r0,#0
        0x0800143e:    d1d6        ..      BNE      0x80013ee ; HAL_UART_Receive + 82
        0x08001440:    f8847042    ..Bp    STRB     r7,[r4,#0x42]
        0x08001444:    e7b5        ..      B        0x80013b2 ; HAL_UART_Receive + 22
        0x08001446:    6820         h      LDR      r0,[r4,#0]
        0x08001448:    6840        @h      LDR      r0,[r0,#4]
        0x0800144a:    e7f1        ..      B        0x8001430 ; HAL_UART_Receive + 148
    i.HAL_UART_Transmit
    HAL_UART_Transmit
        0x0800144c:    e92d43f8    -..C    PUSH     {r3-r9,lr}
        0x08001450:    4604        .F      MOV      r4,r0
        0x08001452:    f8900041    ..A.    LDRB     r0,[r0,#0x41]
        0x08001456:    4698        .F      MOV      r8,r3
        0x08001458:    4616        .F      MOV      r6,r2
        0x0800145a:    460d        .F      MOV      r5,r1
        0x0800145c:    2820         (      CMP      r0,#0x20
        0x0800145e:    d002        ..      BEQ      0x8001466 ; HAL_UART_Transmit + 26
        0x08001460:    2002        .       MOVS     r0,#2
        0x08001462:    e8bd83f8    ....    POP      {r3-r9,pc}
        0x08001466:    b185        ..      CBZ      r5,0x800148a ; HAL_UART_Transmit + 62
        0x08001468:    b17e        ~.      CBZ      r6,0x800148a ; HAL_UART_Transmit + 62
        0x0800146a:    2000        .       MOVS     r0,#0
        0x0800146c:    6460        `d      STR      r0,[r4,#0x44]
        0x0800146e:    2021        !       MOVS     r0,#0x21
        0x08001470:    f8840041    ..A.    STRB     r0,[r4,#0x41]
        0x08001474:    f7fff9ac    ....    BL       HAL_GetTick ; 0x80007d0
        0x08001478:    84a6        ..      STRH     r6,[r4,#0x24]
        0x0800147a:    4681        .F      MOV      r9,r0
        0x0800147c:    84e6        ..      STRH     r6,[r4,#0x26]
        0x0800147e:    68a0        .h      LDR      r0,[r4,#8]
        0x08001480:    2720         '      MOVS     r7,#0x20
        0x08001482:    f5b05f80    ..._    CMP      r0,#0x1000
        0x08001486:    d002        ..      BEQ      0x800148e ; HAL_UART_Transmit + 66
        0x08001488:    e003        ..      B        0x8001492 ; HAL_UART_Transmit + 70
        0x0800148a:    2001        .       MOVS     r0,#1
        0x0800148c:    e7e9        ..      B        0x8001462 ; HAL_UART_Transmit + 22
        0x0800148e:    6920         i      LDR      r0,[r4,#0x10]
        0x08001490:    b110        ..      CBZ      r0,0x8001498 ; HAL_UART_Transmit + 76
        0x08001492:    462e        .F      MOV      r6,r5
        0x08001494:    2500        .%      MOVS     r5,#0
        0x08001496:    e00e        ..      B        0x80014b6 ; HAL_UART_Transmit + 106
        0x08001498:    2600        .&      MOVS     r6,#0
        0x0800149a:    e00c        ..      B        0x80014b6 ; HAL_UART_Transmit + 106
        0x0800149c:    2180        .!      MOVS     r1,#0x80
        0x0800149e:    4620         F      MOV      r0,r4
        0x080014a0:    f000fc70    ..p.    BL       UART_WaitOnFlagUntilTimeout ; 0x8001d84
        0x080014a4:    b9a8        ..      CBNZ     r0,0x80014d2 ; HAL_UART_Transmit + 134
        0x080014a6:    b1c6        ..      CBZ      r6,0x80014da ; HAL_UART_Transmit + 142
        0x080014a8:    f8160b01    ....    LDRB     r0,[r6],#1
        0x080014ac:    6821        !h      LDR      r1,[r4,#0]
        0x080014ae:    6048        H`      STR      r0,[r1,#4]
        0x080014b0:    8ce0        ..      LDRH     r0,[r4,#0x26]
        0x080014b2:    1e40        @.      SUBS     r0,r0,#1
        0x080014b4:    84e0        ..      STRH     r0,[r4,#0x26]
        0x080014b6:    8ce0        ..      LDRH     r0,[r4,#0x26]
        0x080014b8:    464b        KF      MOV      r3,r9
        0x080014ba:    f04f0200    O...    MOV      r2,#0
        0x080014be:    f8cd8000    ....    STR      r8,[sp,#0]
        0x080014c2:    2800        .(      CMP      r0,#0
        0x080014c4:    d1ea        ..      BNE      0x800149c ; HAL_UART_Transmit + 80
        0x080014c6:    f04f0140    O.@.    MOV      r1,#0x40
        0x080014ca:    4620         F      MOV      r0,r4
        0x080014cc:    f000fc5a    ..Z.    BL       UART_WaitOnFlagUntilTimeout ; 0x8001d84
        0x080014d0:    b140        @.      CBZ      r0,0x80014e4 ; HAL_UART_Transmit + 152
        0x080014d2:    f8847041    ..Ap    STRB     r7,[r4,#0x41]
        0x080014d6:    2003        .       MOVS     r0,#3
        0x080014d8:    e7c3        ..      B        0x8001462 ; HAL_UART_Transmit + 22
        0x080014da:    f8350b02    5...    LDRH     r0,[r5],#2
        0x080014de:    f3c00008    ....    UBFX     r0,r0,#0,#9
        0x080014e2:    e7e3        ..      B        0x80014ac ; HAL_UART_Transmit + 96
        0x080014e4:    f8847041    ..Ap    STRB     r7,[r4,#0x41]
        0x080014e8:    2000        .       MOVS     r0,#0
        0x080014ea:    e7ba        ..      B        0x8001462 ; HAL_UART_Transmit + 22
    i.HardFault_Handler
    HardFault_Handler
        0x080014ec:    e7fe        ..      B        HardFault_Handler ; 0x80014ec
    i.I2C_IsAcknowledgeFailed
    I2C_IsAcknowledgeFailed
        0x080014ee:    6801        .h      LDR      r1,[r0,#0]
        0x080014f0:    694a        Ji      LDR      r2,[r1,#0x14]
        0x080014f2:    43d2        .C      MVNS     r2,r2
        0x080014f4:    0552        R.      LSLS     r2,r2,#21
        0x080014f6:    d40f        ..      BMI      0x8001518 ; I2C_IsAcknowledgeFailed + 42
        0x080014f8:    f46f6280    o..b    MVN      r2,#0x400
        0x080014fc:    614a        Ja      STR      r2,[r1,#0x14]
        0x080014fe:    2100        .!      MOVS     r1,#0
        0x08001500:    f8401f30    @.0.    STR      r1,[r0,#0x30]!
        0x08001504:    2220         "      MOVS     r2,#0x20
        0x08001506:    7342        Bs      STRB     r2,[r0,#0xd]
        0x08001508:    7381        .s      STRB     r1,[r0,#0xe]
        0x0800150a:    6902        .i      LDR      r2,[r0,#0x10]
        0x0800150c:    f0420204    B...    ORR      r2,r2,#4
        0x08001510:    6102        .a      STR      r2,[r0,#0x10]
        0x08001512:    7301        .s      STRB     r1,[r0,#0xc]
        0x08001514:    2001        .       MOVS     r0,#1
        0x08001516:    4770        pG      BX       lr
        0x08001518:    2000        .       MOVS     r0,#0
        0x0800151a:    4770        pG      BX       lr
    i.I2C_MasterRequestWrite
    I2C_MasterRequestWrite
        0x0800151c:    b5f8        ..      PUSH     {r3-r7,lr}
        0x0800151e:    4604        .F      MOV      r4,r0
        0x08001520:    6ac0        .j      LDR      r0,[r0,#0x2c]
        0x08001522:    461e        .F      MOV      r6,r3
        0x08001524:    460d        .F      MOV      r5,r1
        0x08001526:    4617        .F      MOV      r7,r2
        0x08001528:    2808        .(      CMP      r0,#8
        0x0800152a:    d007        ..      BEQ      0x800153c ; I2C_MasterRequestWrite + 32
        0x0800152c:    2801        .(      CMP      r0,#1
        0x0800152e:    d005        ..      BEQ      0x800153c ; I2C_MasterRequestWrite + 32
        0x08001530:    f5103f80    ...?    CMN      r0,#0x10000
        0x08001534:    d002        ..      BEQ      0x800153c ; I2C_MasterRequestWrite + 32
        0x08001536:    6b20         k      LDR      r0,[r4,#0x30]
        0x08001538:    2812        .(      CMP      r0,#0x12
        0x0800153a:    d104        ..      BNE      0x8001546 ; I2C_MasterRequestWrite + 42
        0x0800153c:    6820         h      LDR      r0,[r4,#0]
        0x0800153e:    6801        .h      LDR      r1,[r0,#0]
        0x08001540:    f4417180    A..q    ORR      r1,r1,#0x100
        0x08001544:    6001        .`      STR      r1,[r0,#0]
        0x08001546:    4613        .F      MOV      r3,r2
        0x08001548:    2200        ."      MOVS     r2,#0
        0x0800154a:    f04f1101    O...    MOV      r1,#0x10001
        0x0800154e:    4620         F      MOV      r0,r4
        0x08001550:    9600        ..      STR      r6,[sp,#0]
        0x08001552:    f000f8b1    ....    BL       I2C_WaitOnFlagUntilTimeout ; 0x80016b8
        0x08001556:    b140        @.      CBZ      r0,0x800156a ; I2C_MasterRequestWrite + 78
        0x08001558:    6820         h      LDR      r0,[r4,#0]
        0x0800155a:    6800        .h      LDR      r0,[r0,#0]
        0x0800155c:    05c0        ..      LSLS     r0,r0,#23
        0x0800155e:    d502        ..      BPL      0x8001566 ; I2C_MasterRequestWrite + 74
        0x08001560:    f44f7000    O..p    MOV      r0,#0x200
        0x08001564:    6420         d      STR      r0,[r4,#0x40]
        0x08001566:    2003        .       MOVS     r0,#3
        0x08001568:    bdf8        ..      POP      {r3-r7,pc}
        0x0800156a:    6920         i      LDR      r0,[r4,#0x10]
        0x0800156c:    f5b04f80    ...O    CMP      r0,#0x4000
        0x08001570:    d00e        ..      BEQ      0x8001590 ; I2C_MasterRequestWrite + 116
        0x08001572:    2006        .       MOVS     r0,#6
        0x08001574:    6821        !h      LDR      r1,[r4,#0]
        0x08001576:    ea0010d5    ....    AND      r0,r0,r5,LSR #7
        0x0800157a:    f04000f0    @...    ORR      r0,r0,#0xf0
        0x0800157e:    6108        .a      STR      r0,[r1,#0x10]
        0x08001580:    4633        3F      MOV      r3,r6
        0x08001582:    463a        :F      MOV      r2,r7
        0x08001584:    490b        .I      LDR      r1,[pc,#44] ; [0x80015b4] = 0x10008
        0x08001586:    4620         F      MOV      r0,r4
        0x08001588:    f000f8de    ....    BL       I2C_WaitOnMasterAddressFlagUntilTimeout ; 0x8001748
        0x0800158c:    b978        x.      CBNZ     r0,0x80015ae ; I2C_MasterRequestWrite + 146
        0x0800158e:    e002        ..      B        0x8001596 ; I2C_MasterRequestWrite + 122
        0x08001590:    f00500fe    ....    AND      r0,r5,#0xfe
        0x08001594:    e000        ..      B        0x8001598 ; I2C_MasterRequestWrite + 124
        0x08001596:    b2e8        ..      UXTB     r0,r5
        0x08001598:    6821        !h      LDR      r1,[r4,#0]
        0x0800159a:    6108        .a      STR      r0,[r1,#0x10]
        0x0800159c:    4905        .I      LDR      r1,[pc,#20] ; [0x80015b4] = 0x10008
        0x0800159e:    4633        3F      MOV      r3,r6
        0x080015a0:    463a        :F      MOV      r2,r7
        0x080015a2:    1f89        ..      SUBS     r1,r1,#6
        0x080015a4:    4620         F      MOV      r0,r4
        0x080015a6:    f000f8cf    ....    BL       I2C_WaitOnMasterAddressFlagUntilTimeout ; 0x8001748
        0x080015aa:    2800        .(      CMP      r0,#0
        0x080015ac:    d0dc        ..      BEQ      0x8001568 ; I2C_MasterRequestWrite + 76
        0x080015ae:    2001        .       MOVS     r0,#1
        0x080015b0:    bdf8        ..      POP      {r3-r7,pc}
    $d
        0x080015b2:    0000        ..      DCW    0
        0x080015b4:    00010008    ....    DCD    65544
    $t
    i.I2C_RequestMemoryWrite
    I2C_RequestMemoryWrite
        0x080015b8:    e92d43f8    -..C    PUSH     {r3-r9,lr}
        0x080015bc:    4604        .F      MOV      r4,r0
        0x080015be:    6800        .h      LDR      r0,[r0,#0]
        0x080015c0:    460d        .F      MOV      r5,r1
        0x080015c2:    e9dd9708    ....    LDRD     r9,r7,[sp,#0x20]
        0x080015c6:    6801        .h      LDR      r1,[r0,#0]
        0x080015c8:    4698        .F      MOV      r8,r3
        0x080015ca:    4616        .F      MOV      r6,r2
        0x080015cc:    f4417180    A..q    ORR      r1,r1,#0x100
        0x080015d0:    6001        .`      STR      r1,[r0,#0]
        0x080015d2:    464b        KF      MOV      r3,r9
        0x080015d4:    2200        ."      MOVS     r2,#0
        0x080015d6:    f04f1101    O...    MOV      r1,#0x10001
        0x080015da:    4620         F      MOV      r0,r4
        0x080015dc:    9700        ..      STR      r7,[sp,#0]
        0x080015de:    f000f86b    ..k.    BL       I2C_WaitOnFlagUntilTimeout ; 0x80016b8
        0x080015e2:    b148        H.      CBZ      r0,0x80015f8 ; I2C_RequestMemoryWrite + 64
        0x080015e4:    6820         h      LDR      r0,[r4,#0]
        0x080015e6:    6800        .h      LDR      r0,[r0,#0]
        0x080015e8:    05c0        ..      LSLS     r0,r0,#23
        0x080015ea:    d502        ..      BPL      0x80015f2 ; I2C_RequestMemoryWrite + 58
        0x080015ec:    f44f7000    O..p    MOV      r0,#0x200
        0x080015f0:    6420         d      STR      r0,[r4,#0x40]
        0x080015f2:    2003        .       MOVS     r0,#3
        0x080015f4:    e8bd83f8    ....    POP      {r3-r9,pc}
        0x080015f8:    6821        !h      LDR      r1,[r4,#0]
        0x080015fa:    f00500fe    ....    AND      r0,r5,#0xfe
        0x080015fe:    6108        .a      STR      r0,[r1,#0x10]
        0x08001600:    463b        ;F      MOV      r3,r7
        0x08001602:    464a        JF      MOV      r2,r9
        0x08001604:    4915        .I      LDR      r1,[pc,#84] ; [0x800165c] = 0x10002
        0x08001606:    4620         F      MOV      r0,r4
        0x08001608:    f000f89e    ....    BL       I2C_WaitOnMasterAddressFlagUntilTimeout ; 0x8001748
        0x0800160c:    b988        ..      CBNZ     r0,0x8001632 ; I2C_RequestMemoryWrite + 122
        0x0800160e:    6820         h      LDR      r0,[r4,#0]
        0x08001610:    6941        Ai      LDR      r1,[r0,#0x14]
        0x08001612:    6980        .i      LDR      r0,[r0,#0x18]
        0x08001614:    9000        ..      STR      r0,[sp,#0]
        0x08001616:    463a        :F      MOV      r2,r7
        0x08001618:    4649        IF      MOV      r1,r9
        0x0800161a:    4620         F      MOV      r0,r4
        0x0800161c:    f000f8f2    ....    BL       I2C_WaitOnTXEFlagUntilTimeout ; 0x8001804
        0x08001620:    b148        H.      CBZ      r0,0x8001636 ; I2C_RequestMemoryWrite + 126
        0x08001622:    6c20         l      LDR      r0,[r4,#0x40]
        0x08001624:    2804        .(      CMP      r0,#4
        0x08001626:    d104        ..      BNE      0x8001632 ; I2C_RequestMemoryWrite + 122
        0x08001628:    6820         h      LDR      r0,[r4,#0]
        0x0800162a:    6801        .h      LDR      r1,[r0,#0]
        0x0800162c:    f4417100    A..q    ORR      r1,r1,#0x200
        0x08001630:    6001        .`      STR      r1,[r0,#0]
        0x08001632:    2001        .       MOVS     r0,#1
        0x08001634:    e7de        ..      B        0x80015f4 ; I2C_RequestMemoryWrite + 60
        0x08001636:    b2f5        ..      UXTB     r5,r6
        0x08001638:    f1b80f01    ....    CMP      r8,#1
        0x0800163c:    d009        ..      BEQ      0x8001652 ; I2C_RequestMemoryWrite + 154
        0x0800163e:    6821        !h      LDR      r1,[r4,#0]
        0x08001640:    0a30        0.      LSRS     r0,r6,#8
        0x08001642:    6108        .a      STR      r0,[r1,#0x10]
        0x08001644:    463a        :F      MOV      r2,r7
        0x08001646:    4649        IF      MOV      r1,r9
        0x08001648:    4620         F      MOV      r0,r4
        0x0800164a:    f000f8db    ....    BL       I2C_WaitOnTXEFlagUntilTimeout ; 0x8001804
        0x0800164e:    2800        .(      CMP      r0,#0
        0x08001650:    d1e7        ..      BNE      0x8001622 ; I2C_RequestMemoryWrite + 106
        0x08001652:    6820         h      LDR      r0,[r4,#0]
        0x08001654:    6105        .a      STR      r5,[r0,#0x10]
        0x08001656:    2000        .       MOVS     r0,#0
        0x08001658:    e7cc        ..      B        0x80015f4 ; I2C_RequestMemoryWrite + 60
    $d
        0x0800165a:    0000        ..      DCW    0
        0x0800165c:    00010002    ....    DCD    65538
    $t
    i.I2C_WaitOnBTFFlagUntilTimeout
    I2C_WaitOnBTFFlagUntilTimeout
        0x08001660:    b570        p.      PUSH     {r4-r6,lr}
        0x08001662:    4616        .F      MOV      r6,r2
        0x08001664:    460d        .F      MOV      r5,r1
        0x08001666:    4604        .F      MOV      r4,r0
        0x08001668:    e01e        ..      B        0x80016a8 ; I2C_WaitOnBTFFlagUntilTimeout + 72
        0x0800166a:    4620         F      MOV      r0,r4
        0x0800166c:    f7ffff3f    ..?.    BL       I2C_IsAcknowledgeFailed ; 0x80014ee
        0x08001670:    b108        ..      CBZ      r0,0x8001676 ; I2C_WaitOnBTFFlagUntilTimeout + 22
        0x08001672:    2001        .       MOVS     r0,#1
        0x08001674:    bd70        p.      POP      {r4-r6,pc}
        0x08001676:    1c68        h.      ADDS     r0,r5,#1
        0x08001678:    d016        ..      BEQ      0x80016a8 ; I2C_WaitOnBTFFlagUntilTimeout + 72
        0x0800167a:    f7fff8a9    ....    BL       HAL_GetTick ; 0x80007d0
        0x0800167e:    1b80        ..      SUBS     r0,r0,r6
        0x08001680:    42a8        .B      CMP      r0,r5
        0x08001682:    d800        ..      BHI      0x8001686 ; I2C_WaitOnBTFFlagUntilTimeout + 38
        0x08001684:    b985        ..      CBNZ     r5,0x80016a8 ; I2C_WaitOnBTFFlagUntilTimeout + 72
        0x08001686:    6820         h      LDR      r0,[r4,#0]
        0x08001688:    6940        @i      LDR      r0,[r0,#0x14]
        0x0800168a:    43c0        .C      MVNS     r0,r0
        0x0800168c:    0740        @.      LSLS     r0,r0,#29
        0x0800168e:    d50b        ..      BPL      0x80016a8 ; I2C_WaitOnBTFFlagUntilTimeout + 72
        0x08001690:    2000        .       MOVS     r0,#0
        0x08001692:    f8440f30    D.0.    STR      r0,[r4,#0x30]!
        0x08001696:    2120         !      MOVS     r1,#0x20
        0x08001698:    7361        as      STRB     r1,[r4,#0xd]
        0x0800169a:    73a0        .s      STRB     r0,[r4,#0xe]
        0x0800169c:    6921        !i      LDR      r1,[r4,#0x10]
        0x0800169e:    f0410120    A. .    ORR      r1,r1,#0x20
        0x080016a2:    6121        !a      STR      r1,[r4,#0x10]
        0x080016a4:    7320         s      STRB     r0,[r4,#0xc]
        0x080016a6:    e7e4        ..      B        0x8001672 ; I2C_WaitOnBTFFlagUntilTimeout + 18
        0x080016a8:    6820         h      LDR      r0,[r4,#0]
        0x080016aa:    6940        @i      LDR      r0,[r0,#0x14]
        0x080016ac:    43c0        .C      MVNS     r0,r0
        0x080016ae:    0740        @.      LSLS     r0,r0,#29
        0x080016b0:    d4db        ..      BMI      0x800166a ; I2C_WaitOnBTFFlagUntilTimeout + 10
        0x080016b2:    2000        .       MOVS     r0,#0
        0x080016b4:    bd70        p.      POP      {r4-r6,pc}
        0x080016b6:    0000        ..      MOVS     r0,r0
    i.I2C_WaitOnFlagUntilTimeout
    I2C_WaitOnFlagUntilTimeout
        0x080016b8:    e92d47f0    -..G    PUSH     {r4-r10,lr}
        0x080016bc:    4698        .F      MOV      r8,r3
        0x080016be:    4617        .F      MOV      r7,r2
        0x080016c0:    460d        .F      MOV      r5,r1
        0x080016c2:    4604        .F      MOV      r4,r0
        0x080016c4:    f3c14607    ...F    UBFX     r6,r1,#16,#8
        0x080016c8:    f8dd9020    .. .    LDR      r9,[sp,#0x20]
        0x080016cc:    e02a        *.      B        0x8001724 ; I2C_WaitOnFlagUntilTimeout + 108
        0x080016ce:    bf00        ..      NOP      
        0x080016d0:    f1b83fff    ...?    CMP      r8,#0xffffffff
        0x080016d4:    d026        &.      BEQ      0x8001724 ; I2C_WaitOnFlagUntilTimeout + 108
        0x080016d6:    f7fff87b    ..{.    BL       HAL_GetTick ; 0x80007d0
        0x080016da:    eba00109    ....    SUB      r1,r0,r9
        0x080016de:    4541        AE      CMP      r1,r8
        0x080016e0:    d802        ..      BHI      0x80016e8 ; I2C_WaitOnFlagUntilTimeout + 48
        0x080016e2:    f1b80f00    ....    CMP      r8,#0
        0x080016e6:    d11d        ..      BNE      0x8001724 ; I2C_WaitOnFlagUntilTimeout + 108
        0x080016e8:    6820         h      LDR      r0,[r4,#0]
        0x080016ea:    2e01        ..      CMP      r6,#1
        0x080016ec:    d016        ..      BEQ      0x800171c ; I2C_WaitOnFlagUntilTimeout + 100
        0x080016ee:    6980        .i      LDR      r0,[r0,#0x18]
        0x080016f0:    ea250000    %...    BIC      r0,r5,r0
        0x080016f4:    0400        ..      LSLS     r0,r0,#16
        0x080016f6:    0c00        ..      LSRS     r0,r0,#16
        0x080016f8:    d012        ..      BEQ      0x8001720 ; I2C_WaitOnFlagUntilTimeout + 104
        0x080016fa:    2000        .       MOVS     r0,#0
        0x080016fc:    42b8        .B      CMP      r0,r7
        0x080016fe:    d111        ..      BNE      0x8001724 ; I2C_WaitOnFlagUntilTimeout + 108
        0x08001700:    2000        .       MOVS     r0,#0
        0x08001702:    f8440f30    D.0.    STR      r0,[r4,#0x30]!
        0x08001706:    2120         !      MOVS     r1,#0x20
        0x08001708:    7361        as      STRB     r1,[r4,#0xd]
        0x0800170a:    73a0        .s      STRB     r0,[r4,#0xe]
        0x0800170c:    6921        !i      LDR      r1,[r4,#0x10]
        0x0800170e:    f0410120    A. .    ORR      r1,r1,#0x20
        0x08001712:    6121        !a      STR      r1,[r4,#0x10]
        0x08001714:    7320         s      STRB     r0,[r4,#0xc]
        0x08001716:    2001        .       MOVS     r0,#1
        0x08001718:    e8bd87f0    ....    POP      {r4-r10,pc}
        0x0800171c:    6940        @i      LDR      r0,[r0,#0x14]
        0x0800171e:    e7e7        ..      B        0x80016f0 ; I2C_WaitOnFlagUntilTimeout + 56
        0x08001720:    2001        .       MOVS     r0,#1
        0x08001722:    e7eb        ..      B        0x80016fc ; I2C_WaitOnFlagUntilTimeout + 68
        0x08001724:    6820         h      LDR      r0,[r4,#0]
        0x08001726:    2e01        ..      CMP      r6,#1
        0x08001728:    d00a        ..      BEQ      0x8001740 ; I2C_WaitOnFlagUntilTimeout + 136
        0x0800172a:    6980        .i      LDR      r0,[r0,#0x18]
        0x0800172c:    ea250000    %...    BIC      r0,r5,r0
        0x08001730:    0400        ..      LSLS     r0,r0,#16
        0x08001732:    0c00        ..      LSRS     r0,r0,#16
        0x08001734:    d006        ..      BEQ      0x8001744 ; I2C_WaitOnFlagUntilTimeout + 140
        0x08001736:    2000        .       MOVS     r0,#0
        0x08001738:    42b8        .B      CMP      r0,r7
        0x0800173a:    d0c9        ..      BEQ      0x80016d0 ; I2C_WaitOnFlagUntilTimeout + 24
        0x0800173c:    2000        .       MOVS     r0,#0
        0x0800173e:    e7eb        ..      B        0x8001718 ; I2C_WaitOnFlagUntilTimeout + 96
        0x08001740:    6940        @i      LDR      r0,[r0,#0x14]
        0x08001742:    e7f3        ..      B        0x800172c ; I2C_WaitOnFlagUntilTimeout + 116
        0x08001744:    2001        .       MOVS     r0,#1
        0x08001746:    e7f7        ..      B        0x8001738 ; I2C_WaitOnFlagUntilTimeout + 128
    i.I2C_WaitOnMasterAddressFlagUntilTimeout
    I2C_WaitOnMasterAddressFlagUntilTimeout
        0x08001748:    e92d47f0    -..G    PUSH     {r4-r10,lr}
        0x0800174c:    4698        .F      MOV      r8,r3
        0x0800174e:    4616        .F      MOV      r6,r2
        0x08001750:    460d        .F      MOV      r5,r1
        0x08001752:    4604        .F      MOV      r4,r0
        0x08001754:    f04f0900    O...    MOV      r9,#0
        0x08001758:    f04f0a20    O. .    MOV      r10,#0x20
        0x0800175c:    f3c14707    ...G    UBFX     r7,r1,#16,#8
        0x08001760:    e023        #.      B        0x80017aa ; I2C_WaitOnMasterAddressFlagUntilTimeout + 98
        0x08001762:    6820         h      LDR      r0,[r4,#0]
        0x08001764:    6940        @i      LDR      r0,[r0,#0x14]
        0x08001766:    43c0        .C      MVNS     r0,r0
        0x08001768:    0540        @.      LSLS     r0,r0,#21
        0x0800176a:    d415        ..      BMI      0x8001798 ; I2C_WaitOnMasterAddressFlagUntilTimeout + 80
        0x0800176c:    6820         h      LDR      r0,[r4,#0]
        0x0800176e:    6801        .h      LDR      r1,[r0,#0]
        0x08001770:    f4417100    A..q    ORR      r1,r1,#0x200
        0x08001774:    6001        .`      STR      r1,[r0,#0]
        0x08001776:    6821        !h      LDR      r1,[r4,#0]
        0x08001778:    f46f6080    o..`    MVN      r0,#0x400
        0x0800177c:    6148        Ha      STR      r0,[r1,#0x14]
        0x0800177e:    f8c49030    ..0.    STR      r9,[r4,#0x30]
        0x08001782:    f884a03d    ..=.    STRB     r10,[r4,#0x3d]
        0x08001786:    f884903e    ..>.    STRB     r9,[r4,#0x3e]
        0x0800178a:    6c21        !l      LDR      r1,[r4,#0x40]
        0x0800178c:    f0410104    A...    ORR      r1,r1,#4
        0x08001790:    6421        !d      STR      r1,[r4,#0x40]
        0x08001792:    f884903c    ..<.    STRB     r9,[r4,#0x3c]
        0x08001796:    e021        !.      B        0x80017dc ; I2C_WaitOnMasterAddressFlagUntilTimeout + 148
        0x08001798:    1c70        p.      ADDS     r0,r6,#1
        0x0800179a:    d006        ..      BEQ      0x80017aa ; I2C_WaitOnMasterAddressFlagUntilTimeout + 98
        0x0800179c:    f7fff818    ....    BL       HAL_GetTick ; 0x80007d0
        0x080017a0:    eba00008    ....    SUB      r0,r0,r8
        0x080017a4:    42b0        .B      CMP      r0,r6
        0x080017a6:    d803        ..      BHI      0x80017b0 ; I2C_WaitOnMasterAddressFlagUntilTimeout + 104
        0x080017a8:    b116        ..      CBZ      r6,0x80017b0 ; I2C_WaitOnMasterAddressFlagUntilTimeout + 104
        0x080017aa:    2f01        ./      CMP      r7,#1
        0x080017ac:    d01f        ..      BEQ      0x80017ee ; I2C_WaitOnMasterAddressFlagUntilTimeout + 166
        0x080017ae:    e021        !.      B        0x80017f4 ; I2C_WaitOnMasterAddressFlagUntilTimeout + 172
        0x080017b0:    6820         h      LDR      r0,[r4,#0]
        0x080017b2:    2f01        ./      CMP      r7,#1
        0x080017b4:    d015        ..      BEQ      0x80017e2 ; I2C_WaitOnMasterAddressFlagUntilTimeout + 154
        0x080017b6:    6980        .i      LDR      r0,[r0,#0x18]
        0x080017b8:    ea250000    %...    BIC      r0,r5,r0
        0x080017bc:    0400        ..      LSLS     r0,r0,#16
        0x080017be:    0c00        ..      LSRS     r0,r0,#16
        0x080017c0:    d018        ..      BEQ      0x80017f4 ; I2C_WaitOnMasterAddressFlagUntilTimeout + 172
        0x080017c2:    bf00        ..      NOP      
        0x080017c4:    f8449f30    D.0.    STR      r9,[r4,#0x30]!
        0x080017c8:    f884a00d    ....    STRB     r10,[r4,#0xd]
        0x080017cc:    f884900e    ....    STRB     r9,[r4,#0xe]
        0x080017d0:    6921        !i      LDR      r1,[r4,#0x10]
        0x080017d2:    f0410120    A. .    ORR      r1,r1,#0x20
        0x080017d6:    6121        !a      STR      r1,[r4,#0x10]
        0x080017d8:    f884900c    ....    STRB     r9,[r4,#0xc]
        0x080017dc:    2001        .       MOVS     r0,#1
        0x080017de:    e8bd87f0    ....    POP      {r4-r10,pc}
        0x080017e2:    6940        @i      LDR      r0,[r0,#0x14]
        0x080017e4:    ea250000    %...    BIC      r0,r5,r0
        0x080017e8:    0400        ..      LSLS     r0,r0,#16
        0x080017ea:    0c00        ..      LSRS     r0,r0,#16
        0x080017ec:    d1ea        ..      BNE      0x80017c4 ; I2C_WaitOnMasterAddressFlagUntilTimeout + 124
        0x080017ee:    6820         h      LDR      r0,[r4,#0]
        0x080017f0:    6940        @i      LDR      r0,[r0,#0x14]
        0x080017f2:    e001        ..      B        0x80017f8 ; I2C_WaitOnMasterAddressFlagUntilTimeout + 176
        0x080017f4:    6820         h      LDR      r0,[r4,#0]
        0x080017f6:    6980        .i      LDR      r0,[r0,#0x18]
        0x080017f8:    ea250000    %...    BIC      r0,r5,r0
        0x080017fc:    0400        ..      LSLS     r0,r0,#16
        0x080017fe:    0c00        ..      LSRS     r0,r0,#16
        0x08001800:    d1af        ..      BNE      0x8001762 ; I2C_WaitOnMasterAddressFlagUntilTimeout + 26
        0x08001802:    e7ec        ..      B        0x80017de ; I2C_WaitOnMasterAddressFlagUntilTimeout + 150
    i.I2C_WaitOnTXEFlagUntilTimeout
    I2C_WaitOnTXEFlagUntilTimeout
        0x08001804:    b570        p.      PUSH     {r4-r6,lr}
        0x08001806:    4616        .F      MOV      r6,r2
        0x08001808:    460d        .F      MOV      r5,r1
        0x0800180a:    4604        .F      MOV      r4,r0
        0x0800180c:    e01e        ..      B        0x800184c ; I2C_WaitOnTXEFlagUntilTimeout + 72
        0x0800180e:    4620         F      MOV      r0,r4
        0x08001810:    f7fffe6d    ..m.    BL       I2C_IsAcknowledgeFailed ; 0x80014ee
        0x08001814:    b108        ..      CBZ      r0,0x800181a ; I2C_WaitOnTXEFlagUntilTimeout + 22
        0x08001816:    2001        .       MOVS     r0,#1
        0x08001818:    bd70        p.      POP      {r4-r6,pc}
        0x0800181a:    1c68        h.      ADDS     r0,r5,#1
        0x0800181c:    d016        ..      BEQ      0x800184c ; I2C_WaitOnTXEFlagUntilTimeout + 72
        0x0800181e:    f7feffd7    ....    BL       HAL_GetTick ; 0x80007d0
        0x08001822:    1b80        ..      SUBS     r0,r0,r6
        0x08001824:    42a8        .B      CMP      r0,r5
        0x08001826:    d800        ..      BHI      0x800182a ; I2C_WaitOnTXEFlagUntilTimeout + 38
        0x08001828:    b985        ..      CBNZ     r5,0x800184c ; I2C_WaitOnTXEFlagUntilTimeout + 72
        0x0800182a:    6820         h      LDR      r0,[r4,#0]
        0x0800182c:    6940        @i      LDR      r0,[r0,#0x14]
        0x0800182e:    43c0        .C      MVNS     r0,r0
        0x08001830:    0600        ..      LSLS     r0,r0,#24
        0x08001832:    d50b        ..      BPL      0x800184c ; I2C_WaitOnTXEFlagUntilTimeout + 72
        0x08001834:    2000        .       MOVS     r0,#0
        0x08001836:    f8440f30    D.0.    STR      r0,[r4,#0x30]!
        0x0800183a:    2120         !      MOVS     r1,#0x20
        0x0800183c:    7361        as      STRB     r1,[r4,#0xd]
        0x0800183e:    73a0        .s      STRB     r0,[r4,#0xe]
        0x08001840:    6921        !i      LDR      r1,[r4,#0x10]
        0x08001842:    f0410120    A. .    ORR      r1,r1,#0x20
        0x08001846:    6121        !a      STR      r1,[r4,#0x10]
        0x08001848:    7320         s      STRB     r0,[r4,#0xc]
        0x0800184a:    e7e4        ..      B        0x8001816 ; I2C_WaitOnTXEFlagUntilTimeout + 18
        0x0800184c:    6820         h      LDR      r0,[r4,#0]
        0x0800184e:    6940        @i      LDR      r0,[r0,#0x14]
        0x08001850:    43c0        .C      MVNS     r0,r0
        0x08001852:    0600        ..      LSLS     r0,r0,#24
        0x08001854:    d4db        ..      BMI      0x800180e ; I2C_WaitOnTXEFlagUntilTimeout + 10
        0x08001856:    2000        .       MOVS     r0,#0
        0x08001858:    bd70        p.      POP      {r4-r6,pc}
        0x0800185a:    0000        ..      MOVS     r0,r0
    i.MX_GPIO_Init
    MX_GPIO_Init
        0x0800185c:    b570        p.      PUSH     {r4-r6,lr}
        0x0800185e:    b086        ..      SUB      sp,sp,#0x18
        0x08001860:    2114        .!      MOVS     r1,#0x14
        0x08001862:    4668        hF      MOV      r0,sp
        0x08001864:    f7fefcf8    ....    BL       __aeabi_memclr ; 0x8000258
        0x08001868:    4823        #H      LDR      r0,[pc,#140] ; [0x80018f8] = 0x40023830
        0x0800186a:    2400        .$      MOVS     r4,#0
        0x0800186c:    6801        .h      LDR      r1,[r0,#0]
        0x0800186e:    f0410110    A...    ORR      r1,r1,#0x10
        0x08001872:    6001        .`      STR      r1,[r0,#0]
        0x08001874:    6801        .h      LDR      r1,[r0,#0]
        0x08001876:    f0010110    ....    AND      r1,r1,#0x10
        0x0800187a:    9105        ..      STR      r1,[sp,#0x14]
        0x0800187c:    6801        .h      LDR      r1,[r0,#0]
        0x0800187e:    f0410120    A. .    ORR      r1,r1,#0x20
        0x08001882:    6001        .`      STR      r1,[r0,#0]
        0x08001884:    6801        .h      LDR      r1,[r0,#0]
        0x08001886:    f0010120    .. .    AND      r1,r1,#0x20
        0x0800188a:    9105        ..      STR      r1,[sp,#0x14]
        0x0800188c:    6801        .h      LDR      r1,[r0,#0]
        0x0800188e:    f0410101    A...    ORR      r1,r1,#1
        0x08001892:    6001        .`      STR      r1,[r0,#0]
        0x08001894:    6801        .h      LDR      r1,[r0,#0]
        0x08001896:    f0010101    ....    AND      r1,r1,#1
        0x0800189a:    9105        ..      STR      r1,[sp,#0x14]
        0x0800189c:    6801        .h      LDR      r1,[r0,#0]
        0x0800189e:    f0410102    A...    ORR      r1,r1,#2
        0x080018a2:    6001        .`      STR      r1,[r0,#0]
        0x080018a4:    6800        .h      LDR      r0,[r0,#0]
        0x080018a6:    4e15        .N      LDR      r6,[pc,#84] ; [0x80018fc] = 0x40021400
        0x080018a8:    f0000002    ....    AND      r0,r0,#2
        0x080018ac:    f44f65c0    O..e    MOV      r5,#0x600
        0x080018b0:    9005        ..      STR      r0,[sp,#0x14]
        0x080018b2:    2200        ."      MOVS     r2,#0
        0x080018b4:    4629        )F      MOV      r1,r5
        0x080018b6:    4630        0F      MOV      r0,r6
        0x080018b8:    f7feff85    ....    BL       HAL_GPIO_WritePin ; 0x80007c6
        0x080018bc:    2008        .       MOVS     r0,#8
        0x080018be:    9000        ..      STR      r0,[sp,#0]
        0x080018c0:    f44f1044    O.D.    MOV      r0,#0x310000
        0x080018c4:    e9cd0401    ....    STRD     r0,r4,[sp,#4]
        0x080018c8:    4669        iF      MOV      r1,sp
        0x080018ca:    480d        .H      LDR      r0,[pc,#52] ; [0x8001900] = 0x40021000
        0x080018cc:    f7fefe7e    ..~.    BL       HAL_GPIO_Init ; 0x80005cc
        0x080018d0:    2001        .       MOVS     r0,#1
        0x080018d2:    9500        ..      STR      r5,[sp,#0]
        0x080018d4:    e9cd0401    ....    STRD     r0,r4,[sp,#4]
        0x080018d8:    4669        iF      MOV      r1,sp
        0x080018da:    4630        0F      MOV      r0,r6
        0x080018dc:    9403        ..      STR      r4,[sp,#0xc]
        0x080018de:    f7fefe75    ..u.    BL       HAL_GPIO_Init ; 0x80005cc
        0x080018e2:    2200        ."      MOVS     r2,#0
        0x080018e4:    4611        .F      MOV      r1,r2
        0x080018e6:    2009        .       MOVS     r0,#9
        0x080018e8:    f7fffa08    ....    BL       HAL_NVIC_SetPriority ; 0x8000cfc
        0x080018ec:    2009        .       MOVS     r0,#9
        0x080018ee:    f7fff9f7    ....    BL       HAL_NVIC_EnableIRQ ; 0x8000ce0
        0x080018f2:    b006        ..      ADD      sp,sp,#0x18
        0x080018f4:    bd70        p.      POP      {r4-r6,pc}
    $d
        0x080018f6:    0000        ..      DCW    0
        0x080018f8:    40023830    08.@    DCD    1073887280
        0x080018fc:    40021400    ...@    DCD    1073878016
        0x08001900:    40021000    ...@    DCD    1073876992
    $t
    i.MX_I2C1_Init
    MX_I2C1_Init
        0x08001904:    480d        .H      LDR      r0,[pc,#52] ; [0x800193c] = 0x2000009c
        0x08001906:    b510        ..      PUSH     {r4,lr}
        0x08001908:    490b        .I      LDR      r1,[pc,#44] ; [0x8001938] = 0x40005400
        0x0800190a:    6001        .`      STR      r1,[r0,#0]
        0x0800190c:    490c        .I      LDR      r1,[pc,#48] ; [0x8001940] = 0x186a0
        0x0800190e:    6041        A`      STR      r1,[r0,#4]
        0x08001910:    2100        .!      MOVS     r1,#0
        0x08001912:    f44f4280    O..B    MOV      r2,#0x4000
        0x08001916:    6081        .`      STR      r1,[r0,#8]
        0x08001918:    e9c01203    ....    STRD     r1,r2,[r0,#0xc]
        0x0800191c:    6141        Aa      STR      r1,[r0,#0x14]
        0x0800191e:    6181        .a      STR      r1,[r0,#0x18]
        0x08001920:    61c1        .a      STR      r1,[r0,#0x1c]
        0x08001922:    6201        .b      STR      r1,[r0,#0x20]
        0x08001924:    f7feff5a    ..Z.    BL       HAL_I2C_Init ; 0x80007dc
        0x08001928:    2800        .(      CMP      r0,#0
        0x0800192a:    d003        ..      BEQ      0x8001934 ; MX_I2C1_Init + 48
        0x0800192c:    e8bd4010    ...@    POP      {r4,lr}
        0x08001930:    f7febe32    ..2.    B        Error_Handler ; 0x8000598
        0x08001934:    bd10        ..      POP      {r4,pc}
    $d
        0x08001936:    0000        ..      DCW    0
        0x08001938:    40005400    .T.@    DCD    1073763328
        0x0800193c:    2000009c    ...     DCD    536871068
        0x08001940:    000186a0    ....    DCD    100000
    $t
    i.MX_USART1_UART_Init
    MX_USART1_UART_Init
        0x08001944:    480c        .H      LDR      r0,[pc,#48] ; [0x8001978] = 0x200000f0
        0x08001946:    b510        ..      PUSH     {r4,lr}
        0x08001948:    490a        .I      LDR      r1,[pc,#40] ; [0x8001974] = 0x40011000
        0x0800194a:    6001        .`      STR      r1,[r0,#0]
        0x0800194c:    f44f31e1    O..1    MOV      r1,#0x1c200
        0x08001950:    6041        A`      STR      r1,[r0,#4]
        0x08001952:    2100        .!      MOVS     r1,#0
        0x08001954:    6081        .`      STR      r1,[r0,#8]
        0x08001956:    220c        ."      MOVS     r2,#0xc
        0x08001958:    60c1        .`      STR      r1,[r0,#0xc]
        0x0800195a:    e9c01204    ....    STRD     r1,r2,[r0,#0x10]
        0x0800195e:    6181        .a      STR      r1,[r0,#0x18]
        0x08001960:    61c1        .a      STR      r1,[r0,#0x1c]
        0x08001962:    f7fffcb3    ....    BL       HAL_UART_Init ; 0x80012cc
        0x08001966:    2800        .(      CMP      r0,#0
        0x08001968:    d003        ..      BEQ      0x8001972 ; MX_USART1_UART_Init + 46
        0x0800196a:    e8bd4010    ...@    POP      {r4,lr}
        0x0800196e:    f7febe13    ....    B        Error_Handler ; 0x8000598
        0x08001972:    bd10        ..      POP      {r4,pc}
    $d
        0x08001974:    40011000    ...@    DCD    1073811456
        0x08001978:    200000f0    ...     DCD    536871152
    $t
    i.MemManage_Handler
    MemManage_Handler
        0x0800197c:    e7fe        ..      B        MemManage_Handler ; 0x800197c
    i.NMI_Handler
    NMI_Handler
        0x0800197e:    e7fe        ..      B        NMI_Handler ; 0x800197e
    i.OLED_Clear
    OLED_Clear
        0x08001980:    b510        ..      PUSH     {r4,lr}
        0x08001982:    b0a0        ..      SUB      sp,sp,#0x80
        0x08001984:    2400        .$      MOVS     r4,#0
        0x08001986:    2180        .!      MOVS     r1,#0x80
        0x08001988:    4668        hF      MOV      r0,sp
        0x0800198a:    f7fefc65    ..e.    BL       __aeabi_memclr ; 0x8000258
        0x0800198e:    2100        .!      MOVS     r1,#0
        0x08001990:    4620         F      MOV      r0,r4
        0x08001992:    f000f8a9    ....    BL       OLED_SetPosition ; 0x8001ae8
        0x08001996:    2180        .!      MOVS     r1,#0x80
        0x08001998:    4668        hF      MOV      r0,sp
        0x0800199a:    f000f8d9    ....    BL       OLED_WriteNBytes ; 0x8001b50
        0x0800199e:    1c64        d.      ADDS     r4,r4,#1
        0x080019a0:    b2e4        ..      UXTB     r4,r4
        0x080019a2:    2c08        .,      CMP      r4,#8
        0x080019a4:    d3f3        ..      BCC      0x800198e ; OLED_Clear + 14
        0x080019a6:    b020         .      ADD      sp,sp,#0x80
        0x080019a8:    bd10        ..      POP      {r4,pc}
        0x080019aa:    0000        ..      MOVS     r0,r0
    i.OLED_Init
    OLED_Init
        0x080019ac:    b510        ..      PUSH     {r4,lr}
        0x080019ae:    2402        .$      MOVS     r4,#2
        0x080019b0:    2020                MOVS     r0,#0x20
        0x080019b2:    f000f8b9    ....    BL       OLED_WriteCmd ; 0x8001b28
        0x080019b6:    4620         F      MOV      r0,r4
        0x080019b8:    f000f8b6    ....    BL       OLED_WriteCmd ; 0x8001b28
        0x080019bc:    481f        .H      LDR      r0,[pc,#124] ; [0x8001a3c] = 0x20000020
        0x080019be:    7004        .p      STRB     r4,[r0,#0]
        0x080019c0:    243f        ?$      MOVS     r4,#0x3f
        0x080019c2:    20a8        .       MOVS     r0,#0xa8
        0x080019c4:    f000f8b0    ....    BL       OLED_WriteCmd ; 0x8001b28
        0x080019c8:    4620         F      MOV      r0,r4
        0x080019ca:    f000f8ad    ....    BL       OLED_WriteCmd ; 0x8001b28
        0x080019ce:    2400        .$      MOVS     r4,#0
        0x080019d0:    20d3        .       MOVS     r0,#0xd3
        0x080019d2:    f000f8a9    ....    BL       OLED_WriteCmd ; 0x8001b28
        0x080019d6:    4620         F      MOV      r0,r4
        0x080019d8:    f000f8a6    ....    BL       OLED_WriteCmd ; 0x8001b28
        0x080019dc:    2040        @       MOVS     r0,#0x40
        0x080019de:    f000f8a3    ....    BL       OLED_WriteCmd ; 0x8001b28
        0x080019e2:    20a1        .       MOVS     r0,#0xa1
        0x080019e4:    f000f8a0    ....    BL       OLED_WriteCmd ; 0x8001b28
        0x080019e8:    20c8        .       MOVS     r0,#0xc8
        0x080019ea:    f000f89d    ....    BL       OLED_WriteCmd ; 0x8001b28
        0x080019ee:    2100        .!      MOVS     r1,#0
        0x080019f0:    4608        .F      MOV      r0,r1
        0x080019f2:    f000f863    ..c.    BL       OLED_SetComConfig ; 0x8001abc
        0x080019f6:    247f        .$      MOVS     r4,#0x7f
        0x080019f8:    2081        .       MOVS     r0,#0x81
        0x080019fa:    f000f895    ....    BL       OLED_WriteCmd ; 0x8001b28
        0x080019fe:    4620         F      MOV      r0,r4
        0x08001a00:    f000f892    ....    BL       OLED_WriteCmd ; 0x8001b28
        0x08001a04:    20a4        .       MOVS     r0,#0xa4
        0x08001a06:    f000f88f    ....    BL       OLED_WriteCmd ; 0x8001b28
        0x08001a0a:    20a6        .       MOVS     r0,#0xa6
        0x08001a0c:    f000f88c    ....    BL       OLED_WriteCmd ; 0x8001b28
        0x08001a10:    20d5        .       MOVS     r0,#0xd5
        0x08001a12:    f000f889    ....    BL       OLED_WriteCmd ; 0x8001b28
        0x08001a16:    2080        .       MOVS     r0,#0x80
        0x08001a18:    f000f886    ....    BL       OLED_WriteCmd ; 0x8001b28
        0x08001a1c:    208d        .       MOVS     r0,#0x8d
        0x08001a1e:    f000f883    ....    BL       OLED_WriteCmd ; 0x8001b28
        0x08001a22:    2014        .       MOVS     r0,#0x14
        0x08001a24:    f000f880    ....    BL       OLED_WriteCmd ; 0x8001b28
        0x08001a28:    2100        .!      MOVS     r1,#0
        0x08001a2a:    2001        .       MOVS     r0,#1
        0x08001a2c:    f000f846    ..F.    BL       OLED_SetComConfig ; 0x8001abc
        0x08001a30:    e8bd4010    ...@    POP      {r4,lr}
        0x08001a34:    20af        .       MOVS     r0,#0xaf
        0x08001a36:    f000b877    ..w.    B.W      OLED_WriteCmd ; 0x8001b28
    $d
        0x08001a3a:    0000        ..      DCW    0
        0x08001a3c:    20000020     ..     DCD    536870944
    $t
    i.OLED_PrintString
    OLED_PrintString
        0x08001a40:    e92d41f0    -..A    PUSH     {r4-r8,lr}
        0x08001a44:    4617        .F      MOV      r7,r2
        0x08001a46:    460e        .F      MOV      r6,r1
        0x08001a48:    4604        .F      MOV      r4,r0
        0x08001a4a:    2500        .%      MOVS     r5,#0
        0x08001a4c:    e00b        ..      B        0x8001a66 ; OLED_PrintString + 38
        0x08001a4e:    4631        1F      MOV      r1,r6
        0x08001a50:    4620         F      MOV      r0,r4
        0x08001a52:    f000f80f    ....    BL       OLED_PutChar ; 0x8001a74
        0x08001a56:    1c64        d.      ADDS     r4,r4,#1
        0x08001a58:    b2e4        ..      UXTB     r4,r4
        0x08001a5a:    2c0f        .,      CMP      r4,#0xf
        0x08001a5c:    d902        ..      BLS      0x8001a64 ; OLED_PrintString + 36
        0x08001a5e:    2400        .$      MOVS     r4,#0
        0x08001a60:    1cb6        ..      ADDS     r6,r6,#2
        0x08001a62:    b2f6        ..      UXTB     r6,r6
        0x08001a64:    1c6d        m.      ADDS     r5,r5,#1
        0x08001a66:    5d7a        z]      LDRB     r2,[r7,r5]
        0x08001a68:    2a00        .*      CMP      r2,#0
        0x08001a6a:    d1f0        ..      BNE      0x8001a4e ; OLED_PrintString + 14
        0x08001a6c:    4628        (F      MOV      r0,r5
        0x08001a6e:    e8bd81f0    ....    POP      {r4-r8,pc}
        0x08001a72:    0000        ..      MOVS     r0,r0
    i.OLED_PutChar
    OLED_PutChar
        0x08001a74:    b570        p.      PUSH     {r4-r6,lr}
        0x08001a76:    4616        .F      MOV      r6,r2
        0x08001a78:    06c2        ..      LSLS     r2,r0,#27
        0x08001a7a:    0e15        ..      LSRS     r5,r2,#24
        0x08001a7c:    460c        .F      MOV      r4,r1
        0x08001a7e:    2907        .)      CMP      r1,#7
        0x08001a80:    d818        ..      BHI      0x8001ab4 ; OLED_PutChar + 64
        0x08001a82:    280f        .(      CMP      r0,#0xf
        0x08001a84:    d816        ..      BHI      0x8001ab4 ; OLED_PutChar + 64
        0x08001a86:    4629        )F      MOV      r1,r5
        0x08001a88:    4620         F      MOV      r0,r4
        0x08001a8a:    f000f82d    ..-.    BL       OLED_SetPosition ; 0x8001ae8
        0x08001a8e:    480a        .H      LDR      r0,[pc,#40] ; [0x8001ab8] = 0x8002092
        0x08001a90:    2108        .!      MOVS     r1,#8
        0x08001a92:    eb001006    ....    ADD      r0,r0,r6,LSL #4
        0x08001a96:    4606        .F      MOV      r6,r0
        0x08001a98:    f000f85a    ..Z.    BL       OLED_WriteNBytes ; 0x8001b50
        0x08001a9c:    1c64        d.      ADDS     r4,r4,#1
        0x08001a9e:    b2e0        ..      UXTB     r0,r4
        0x08001aa0:    4629        )F      MOV      r1,r5
        0x08001aa2:    f000f821    ..!.    BL       OLED_SetPosition ; 0x8001ae8
        0x08001aa6:    f1060008    ....    ADD      r0,r6,#8
        0x08001aaa:    e8bd4070    ..p@    POP      {r4-r6,lr}
        0x08001aae:    2108        .!      MOVS     r1,#8
        0x08001ab0:    f000b84e    ..N.    B.W      OLED_WriteNBytes ; 0x8001b50
        0x08001ab4:    bd70        p.      POP      {r4-r6,pc}
    $d
        0x08001ab6:    0000        ..      DCW    0
        0x08001ab8:    08002092    . ..    DCD    134226066
    $t
    i.OLED_SetComConfig
    OLED_SetComConfig
        0x08001abc:    b570        p.      PUSH     {r4-r6,lr}
        0x08001abe:    460c        .F      MOV      r4,r1
        0x08001ac0:    0005        ..      MOVS     r5,r0
        0x08001ac2:    d001        ..      BEQ      0x8001ac8 ; OLED_SetComConfig + 12
        0x08001ac4:    2d01        .-      CMP      r5,#1
        0x08001ac6:    d10e        ..      BNE      0x8001ae6 ; OLED_SetComConfig + 42
        0x08001ac8:    b10c        ..      CBZ      r4,0x8001ace ; OLED_SetComConfig + 18
        0x08001aca:    2c01        .,      CMP      r4,#1
        0x08001acc:    d10b        ..      BNE      0x8001ae6 ; OLED_SetComConfig + 42
        0x08001ace:    20da        .       MOVS     r0,#0xda
        0x08001ad0:    f000f82a    ..*.    BL       OLED_WriteCmd ; 0x8001b28
        0x08001ad4:    0128        (.      LSLS     r0,r5,#4
        0x08001ad6:    eb001044    ..D.    ADD      r0,r0,r4,LSL #5
        0x08001ada:    e8bd4070    ..p@    POP      {r4-r6,lr}
        0x08001ade:    1c80        ..      ADDS     r0,r0,#2
        0x08001ae0:    b2c0        ..      UXTB     r0,r0
        0x08001ae2:    f000b821    ..!.    B.W      OLED_WriteCmd ; 0x8001b28
        0x08001ae6:    bd70        p.      POP      {r4-r6,pc}
    i.OLED_SetPosition
    OLED_SetPosition
        0x08001ae8:    b570        p.      PUSH     {r4-r6,lr}
        0x08001aea:    4d0e        .M      LDR      r5,[pc,#56] ; [0x8001b24] = 0x20000020
        0x08001aec:    460c        .F      MOV      r4,r1
        0x08001aee:    7829        )x      LDRB     r1,[r5,#0]
        0x08001af0:    2902        .)      CMP      r1,#2
        0x08001af2:    d105        ..      BNE      0x8001b00 ; OLED_SetPosition + 24
        0x08001af4:    2807        .(      CMP      r0,#7
        0x08001af6:    d803        ..      BHI      0x8001b00 ; OLED_SetPosition + 24
        0x08001af8:    30b0        .0      ADDS     r0,r0,#0xb0
        0x08001afa:    b2c0        ..      UXTB     r0,r0
        0x08001afc:    f000f814    ....    BL       OLED_WriteCmd ; 0x8001b28
        0x08001b00:    7828        (x      LDRB     r0,[r5,#0]
        0x08001b02:    2802        .(      CMP      r0,#2
        0x08001b04:    d10c        ..      BNE      0x8001b20 ; OLED_SetPosition + 56
        0x08001b06:    2c7f        .,      CMP      r4,#0x7f
        0x08001b08:    d80a        ..      BHI      0x8001b20 ; OLED_SetPosition + 56
        0x08001b0a:    f004000f    ....    AND      r0,r4,#0xf
        0x08001b0e:    f000f80b    ....    BL       OLED_WriteCmd ; 0x8001b28
        0x08001b12:    2010        .       MOVS     r0,#0x10
        0x08001b14:    eb001014    ....    ADD      r0,r0,r4,LSR #4
        0x08001b18:    e8bd4070    ..p@    POP      {r4-r6,lr}
        0x08001b1c:    f000b804    ....    B.W      OLED_WriteCmd ; 0x8001b28
        0x08001b20:    bd70        p.      POP      {r4-r6,pc}
    $d
        0x08001b22:    0000        ..      DCW    0
        0x08001b24:    20000020     ..     DCD    536870944
    $t
    i.OLED_WriteCmd
    OLED_WriteCmd
        0x08001b28:    b51c        ..      PUSH     {r2-r4,lr}
        0x08001b2a:    2100        .!      MOVS     r1,#0
        0x08001b2c:    f88d1004    ....    STRB     r1,[sp,#4]
        0x08001b30:    f88d0005    ....    STRB     r0,[sp,#5]
        0x08001b34:    f44f70fa    O..p    MOV      r0,#0x1f4
        0x08001b38:    9000        ..      STR      r0,[sp,#0]
        0x08001b3a:    4804        .H      LDR      r0,[pc,#16] ; [0x8001b4c] = 0x20000020
        0x08001b3c:    2302        .#      MOVS     r3,#2
        0x08001b3e:    aa01        ..      ADD      r2,sp,#4
        0x08001b40:    2178        x!      MOVS     r1,#0x78
        0x08001b42:    6840        @h      LDR      r0,[r0,#4]
        0x08001b44:    f7feff0e    ....    BL       HAL_I2C_Master_Transmit ; 0x8000964
        0x08001b48:    bd1c        ..      POP      {r2-r4,pc}
    $d
        0x08001b4a:    0000        ..      DCW    0
        0x08001b4c:    20000020     ..     DCD    536870944
    $t
    i.OLED_WriteNBytes
    OLED_WriteNBytes
        0x08001b50:    b50e        ..      PUSH     {r1-r3,lr}
        0x08001b52:    f44f72fa    O..r    MOV      r2,#0x1f4
        0x08001b56:    e88d0007    ....    STM      sp,{r0-r2}
        0x08001b5a:    4804        .H      LDR      r0,[pc,#16] ; [0x8001b6c] = 0x20000020
        0x08001b5c:    2301        .#      MOVS     r3,#1
        0x08001b5e:    2240        @"      MOVS     r2,#0x40
        0x08001b60:    2178        x!      MOVS     r1,#0x78
        0x08001b62:    6840        @h      LDR      r0,[r0,#4]
        0x08001b64:    f7feff94    ....    BL       HAL_I2C_Mem_Write ; 0x8000a90
        0x08001b68:    bd0e        ..      POP      {r1-r3,pc}
    $d
        0x08001b6a:    0000        ..      DCW    0
        0x08001b6c:    20000020     ..     DCD    536870944
    $t
    i.PendSV_Handler
    PendSV_Handler
        0x08001b70:    4770        pG      BX       lr
    i.SVC_Handler
    SVC_Handler
        0x08001b72:    4770        pG      BX       lr
    i.SysTick_Handler
    SysTick_Handler
        0x08001b74:    b510        ..      PUSH     {r4,lr}
        0x08001b76:    f7fff859    ..Y.    BL       HAL_IncTick ; 0x8000c2c
        0x08001b7a:    e8bd4010    ...@    POP      {r4,lr}
        0x08001b7e:    f000b97f    ....    B.W      check_timer ; 0x8001e80
        0x08001b82:    0000        ..      MOVS     r0,r0
    i.SystemClock_Config
    SystemClock_Config
        0x08001b84:    b530        0.      PUSH     {r4,r5,lr}
        0x08001b86:    b093        ..      SUB      sp,sp,#0x4c
        0x08001b88:    2130        0!      MOVS     r1,#0x30
        0x08001b8a:    4668        hF      MOV      r0,sp
        0x08001b8c:    f7fefb64    ..d.    BL       __aeabi_memclr ; 0x8000258
        0x08001b90:    2114        .!      MOVS     r1,#0x14
        0x08001b92:    a80c        ..      ADD      r0,sp,#0x30
        0x08001b94:    f7fefb60    ..`.    BL       __aeabi_memclr ; 0x8000258
        0x08001b98:    481d        .H      LDR      r0,[pc,#116] ; [0x8001c10] = 0x40023840
        0x08001b9a:    2500        .%      MOVS     r5,#0
        0x08001b9c:    6801        .h      LDR      r1,[r0,#0]
        0x08001b9e:    f0415180    A..Q    ORR      r1,r1,#0x10000000
        0x08001ba2:    6001        .`      STR      r1,[r0,#0]
        0x08001ba4:    6800        .h      LDR      r0,[r0,#0]
        0x08001ba6:    f0005080    ...P    AND      r0,r0,#0x10000000
        0x08001baa:    9011        ..      STR      r0,[sp,#0x44]
        0x08001bac:    4819        .H      LDR      r0,[pc,#100] ; [0x8001c14] = 0x40007000
        0x08001bae:    6801        .h      LDR      r1,[r0,#0]
        0x08001bb0:    f4414180    A..A    ORR      r1,r1,#0x4000
        0x08001bb4:    6001        .`      STR      r1,[r0,#0]
        0x08001bb6:    6800        .h      LDR      r0,[r0,#0]
        0x08001bb8:    2402        .$      MOVS     r4,#2
        0x08001bba:    f4004080    ...@    AND      r0,r0,#0x4000
        0x08001bbe:    9011        ..      STR      r0,[sp,#0x44]
        0x08001bc0:    2001        .       MOVS     r0,#1
        0x08001bc2:    9003        ..      STR      r0,[sp,#0xc]
        0x08001bc4:    2010        .       MOVS     r0,#0x10
        0x08001bc6:    9004        ..      STR      r0,[sp,#0x10]
        0x08001bc8:    9400        ..      STR      r4,[sp,#0]
        0x08001bca:    9406        ..      STR      r4,[sp,#0x18]
        0x08001bcc:    2008        .       MOVS     r0,#8
        0x08001bce:    e9cd5007    ...P    STRD     r5,r0,[sp,#0x1c]
        0x08001bd2:    20a8        .       MOVS     r0,#0xa8
        0x08001bd4:    e9cd0409    ....    STRD     r0,r4,[sp,#0x24]
        0x08001bd8:    2004        .       MOVS     r0,#4
        0x08001bda:    900b        ..      STR      r0,[sp,#0x2c]
        0x08001bdc:    4668        hF      MOV      r0,sp
        0x08001bde:    f7fff9ab    ....    BL       HAL_RCC_OscConfig ; 0x8000f38
        0x08001be2:    b108        ..      CBZ      r0,0x8001be8 ; SystemClock_Config + 100
        0x08001be4:    b672        r.      CPSID    i
        0x08001be6:    e7fe        ..      B        0x8001be6 ; SystemClock_Config + 98
        0x08001be8:    a90c        ..      ADD      r1,sp,#0x30
        0x08001bea:    200f        .       MOVS     r0,#0xf
        0x08001bec:    e8810031    ..1.    STM      r1,{r0,r4,r5}
        0x08001bf0:    f44f50a0    O..P    MOV      r0,#0x1400
        0x08001bf4:    900f        ..      STR      r0,[sp,#0x3c]
        0x08001bf6:    f44f5080    O..P    MOV      r0,#0x1000
        0x08001bfa:    9010        ..      STR      r0,[sp,#0x40]
        0x08001bfc:    2105        .!      MOVS     r1,#5
        0x08001bfe:    a80c        ..      ADD      r0,sp,#0x30
        0x08001c00:    f7fff8ae    ....    BL       HAL_RCC_ClockConfig ; 0x8000d60
        0x08001c04:    2800        .(      CMP      r0,#0
        0x08001c06:    d001        ..      BEQ      0x8001c0c ; SystemClock_Config + 136
        0x08001c08:    b672        r.      CPSID    i
        0x08001c0a:    e7fe        ..      B        0x8001c0a ; SystemClock_Config + 134
        0x08001c0c:    b013        ..      ADD      sp,sp,#0x4c
        0x08001c0e:    bd30        0.      POP      {r4,r5,pc}
    $d
        0x08001c10:    40023840    @8.@    DCD    1073887296
        0x08001c14:    40007000    .p.@    DCD    1073770496
    $t
    i.SystemInit
    SystemInit
        0x08001c18:    4802        .H      LDR      r0,[pc,#8] ; [0x8001c24] = 0xe000ed88
        0x08001c1a:    6801        .h      LDR      r1,[r0,#0]
        0x08001c1c:    f4410170    A.p.    ORR      r1,r1,#0xf00000
        0x08001c20:    6001        .`      STR      r1,[r0,#0]
        0x08001c22:    4770        pG      BX       lr
    $d
        0x08001c24:    e000ed88    ....    DCD    3758157192
    $t
    i.UART_EndRxTransfer
    UART_EndRxTransfer
        0x08001c28:    6801        .h      LDR      r1,[r0,#0]
        0x08001c2a:    310c        .1      ADDS     r1,r1,#0xc
        0x08001c2c:    e8512f00    Q../    LDREX    r2,[r1]
        0x08001c30:    f4227290    "..r    BIC      r2,r2,#0x120
        0x08001c34:    e8412300    A..#    STREX    r3,r2,[r1]
        0x08001c38:    2b00        .+      CMP      r3,#0
        0x08001c3a:    d1f5        ..      BNE      UART_EndRxTransfer ; 0x8001c28
        0x08001c3c:    6801        .h      LDR      r1,[r0,#0]
        0x08001c3e:    3114        .1      ADDS     r1,r1,#0x14
        0x08001c40:    e8512f00    Q../    LDREX    r2,[r1]
        0x08001c44:    f0220201    "...    BIC      r2,r2,#1
        0x08001c48:    e8412300    A..#    STREX    r3,r2,[r1]
        0x08001c4c:    2b00        .+      CMP      r3,#0
        0x08001c4e:    d1f5        ..      BNE      0x8001c3c ; UART_EndRxTransfer + 20
        0x08001c50:    6b01        .k      LDR      r1,[r0,#0x30]
        0x08001c52:    2901        .)      CMP      r1,#1
        0x08001c54:    d109        ..      BNE      0x8001c6a ; UART_EndRxTransfer + 66
        0x08001c56:    6801        .h      LDR      r1,[r0,#0]
        0x08001c58:    310c        .1      ADDS     r1,r1,#0xc
        0x08001c5a:    e8512f00    Q../    LDREX    r2,[r1]
        0x08001c5e:    f0220210    "...    BIC      r2,r2,#0x10
        0x08001c62:    e8412300    A..#    STREX    r3,r2,[r1]
        0x08001c66:    2b00        .+      CMP      r3,#0
        0x08001c68:    d1f5        ..      BNE      0x8001c56 ; UART_EndRxTransfer + 46
        0x08001c6a:    2120         !      MOVS     r1,#0x20
        0x08001c6c:    f8801042    ..B.    STRB     r1,[r0,#0x42]
        0x08001c70:    2100        .!      MOVS     r1,#0
        0x08001c72:    6301        .c      STR      r1,[r0,#0x30]
        0x08001c74:    4770        pG      BX       lr
        0x08001c76:    0000        ..      MOVS     r0,r0
    i.UART_SetConfig
    UART_SetConfig
        0x08001c78:    b570        p.      PUSH     {r4-r6,lr}
        0x08001c7a:    4604        .F      MOV      r4,r0
        0x08001c7c:    6800        .h      LDR      r0,[r0,#0]
        0x08001c7e:    6901        .i      LDR      r1,[r0,#0x10]
        0x08001c80:    68e2        .h      LDR      r2,[r4,#0xc]
        0x08001c82:    f4215140    !.@Q    BIC      r1,r1,#0x3000
        0x08001c86:    4311        .C      ORRS     r1,r1,r2
        0x08001c88:    6101        .a      STR      r1,[r0,#0x10]
        0x08001c8a:    6921        !i      LDR      r1,[r4,#0x10]
        0x08001c8c:    68a0        .h      LDR      r0,[r4,#8]
        0x08001c8e:    69e2        .i      LDR      r2,[r4,#0x1c]
        0x08001c90:    4308        .C      ORRS     r0,r0,r1
        0x08001c92:    6961        ai      LDR      r1,[r4,#0x14]
        0x08001c94:    4311        .C      ORRS     r1,r1,r2
        0x08001c96:    4308        .C      ORRS     r0,r0,r1
        0x08001c98:    6821        !h      LDR      r1,[r4,#0]
        0x08001c9a:    68ca        .h      LDR      r2,[r1,#0xc]
        0x08001c9c:    f249630c    I..c    MOV      r3,#0x960c
        0x08001ca0:    439a        .C      BICS     r2,r2,r3
        0x08001ca2:    4302        .C      ORRS     r2,r2,r0
        0x08001ca4:    60ca        .`      STR      r2,[r1,#0xc]
        0x08001ca6:    6820         h      LDR      r0,[r4,#0]
        0x08001ca8:    6941        Ai      LDR      r1,[r0,#0x14]
        0x08001caa:    69a2        .i      LDR      r2,[r4,#0x18]
        0x08001cac:    f4217140    !.@q    BIC      r1,r1,#0x300
        0x08001cb0:    4311        .C      ORRS     r1,r1,r2
        0x08001cb2:    6141        Aa      STR      r1,[r0,#0x14]
        0x08001cb4:    4931        1I      LDR      r1,[pc,#196] ; [0x8001d7c] = 0x40011000
        0x08001cb6:    6820         h      LDR      r0,[r4,#0]
        0x08001cb8:    4288        .B      CMP      r0,r1
        0x08001cba:    d002        ..      BEQ      0x8001cc2 ; UART_SetConfig + 74
        0x08001cbc:    4930        0I      LDR      r1,[pc,#192] ; [0x8001d80] = 0x40011400
        0x08001cbe:    4288        .B      CMP      r0,r1
        0x08001cc0:    d102        ..      BNE      0x8001cc8 ; UART_SetConfig + 80
        0x08001cc2:    f7fff8f7    ....    BL       HAL_RCC_GetPCLK2Freq ; 0x8000eb4
        0x08001cc6:    e001        ..      B        0x8001ccc ; UART_SetConfig + 84
        0x08001cc8:    f7fff8e4    ....    BL       HAL_RCC_GetPCLK1Freq ; 0x8000e94
        0x08001ccc:    69e2        .i      LDR      r2,[r4,#0x1c]
        0x08001cce:    2300        .#      MOVS     r3,#0
        0x08001cd0:    2119        .!      MOVS     r1,#0x19
        0x08001cd2:    2564        d%      MOVS     r5,#0x64
        0x08001cd4:    2632        2&      MOVS     r6,#0x32
        0x08001cd6:    f5b24f00    ...O    CMP      r2,#0x8000
        0x08001cda:    6862        bh      LDR      r2,[r4,#4]
        0x08001cdc:    d028        (.      BEQ      0x8001d30 ; UART_SetConfig + 184
        0x08001cde:    fba00101    ....    UMULL    r0,r1,r0,r1
        0x08001ce2:    0f93        ..      LSRS     r3,r2,#30
        0x08001ce4:    0092        ..      LSLS     r2,r2,#2
        0x08001ce6:    f7fefa7f    ....    BL       __aeabi_uldivmod ; 0x80001e8
        0x08001cea:    4601        .F      MOV      r1,r0
        0x08001cec:    fbb0f0f5    ....    UDIV     r0,r0,r5
        0x08001cf0:    f06f0218    o...    MVN      r2,#0x18
        0x08001cf4:    4350        PC      MULS     r0,r2,r0
        0x08001cf6:    eb010080    ....    ADD      r0,r1,r0,LSL #2
        0x08001cfa:    eb061000    ....    ADD      r0,r6,r0,LSL #4
        0x08001cfe:    fbb0f0f5    ....    UDIV     r0,r0,r5
        0x08001d02:    f00002f0    ....    AND      r2,r0,#0xf0
        0x08001d06:    fbb1f0f5    ....    UDIV     r0,r1,r5
        0x08001d0a:    eb021200    ....    ADD      r2,r2,r0,LSL #4
        0x08001d0e:    fbb1f0f5    ....    UDIV     r0,r1,r5
        0x08001d12:    f06f0318    o...    MVN      r3,#0x18
        0x08001d16:    4358        XC      MULS     r0,r3,r0
        0x08001d18:    eb010080    ....    ADD      r0,r1,r0,LSL #2
        0x08001d1c:    eb061000    ....    ADD      r0,r6,r0,LSL #4
        0x08001d20:    fbb0f0f5    ....    UDIV     r0,r0,r5
        0x08001d24:    f000000f    ....    AND      r0,r0,#0xf
        0x08001d28:    6821        !h      LDR      r1,[r4,#0]
        0x08001d2a:    4410        .D      ADD      r0,r0,r2
        0x08001d2c:    6088        .`      STR      r0,[r1,#8]
        0x08001d2e:    bd70        p.      POP      {r4-r6,pc}
        0x08001d30:    fba00101    ....    UMULL    r0,r1,r0,r1
        0x08001d34:    1892        ..      ADDS     r2,r2,r2
        0x08001d36:    415b        [A      ADCS     r3,r3,r3
        0x08001d38:    f7fefa56    ..V.    BL       __aeabi_uldivmod ; 0x80001e8
        0x08001d3c:    4601        .F      MOV      r1,r0
        0x08001d3e:    fbb0f0f5    ....    UDIV     r0,r0,r5
        0x08001d42:    0102        ..      LSLS     r2,r0,#4
        0x08001d44:    fbb1f0f5    ....    UDIV     r0,r1,r5
        0x08001d48:    f06f0318    o...    MVN      r3,#0x18
        0x08001d4c:    4358        XC      MULS     r0,r3,r0
        0x08001d4e:    eb010080    ....    ADD      r0,r1,r0,LSL #2
        0x08001d52:    eb0600c0    ....    ADD      r0,r6,r0,LSL #3
        0x08001d56:    fbb0f0f5    ....    UDIV     r0,r0,r5
        0x08001d5a:    f00000f8    ....    AND      r0,r0,#0xf8
        0x08001d5e:    eb020240    ..@.    ADD      r2,r2,r0,LSL #1
        0x08001d62:    fbb1f0f5    ....    UDIV     r0,r1,r5
        0x08001d66:    4358        XC      MULS     r0,r3,r0
        0x08001d68:    eb010080    ....    ADD      r0,r1,r0,LSL #2
        0x08001d6c:    eb0600c0    ....    ADD      r0,r6,r0,LSL #3
        0x08001d70:    fbb0f0f5    ....    UDIV     r0,r0,r5
        0x08001d74:    f0000007    ....    AND      r0,r0,#7
        0x08001d78:    e7d6        ..      B        0x8001d28 ; UART_SetConfig + 176
    $d
        0x08001d7a:    0000        ..      DCW    0
        0x08001d7c:    40011000    ...@    DCD    1073811456
        0x08001d80:    40011400    ...@    DCD    1073812480
    $t
    i.UART_WaitOnFlagUntilTimeout
    UART_WaitOnFlagUntilTimeout
        0x08001d84:    e92d43f8    -..C    PUSH     {r3-r9,lr}
        0x08001d88:    4698        .F      MOV      r8,r3
        0x08001d8a:    4617        .F      MOV      r7,r2
        0x08001d8c:    460d        .F      MOV      r5,r1
        0x08001d8e:    4604        .F      MOV      r4,r0
        0x08001d90:    9e08        ..      LDR      r6,[sp,#0x20]
        0x08001d92:    e024        $.      B        0x8001dde ; UART_WaitOnFlagUntilTimeout + 90
        0x08001d94:    1c70        p.      ADDS     r0,r6,#1
        0x08001d96:    d022        ".      BEQ      0x8001dde ; UART_WaitOnFlagUntilTimeout + 90
        0x08001d98:    f7fefd1a    ....    BL       HAL_GetTick ; 0x80007d0
        0x08001d9c:    eba00008    ....    SUB      r0,r0,r8
        0x08001da0:    42b0        .B      CMP      r0,r6
        0x08001da2:    d81a        ..      BHI      0x8001dda ; UART_WaitOnFlagUntilTimeout + 86
        0x08001da4:    b1ce        ..      CBZ      r6,0x8001dda ; UART_WaitOnFlagUntilTimeout + 86
        0x08001da6:    6820         h      LDR      r0,[r4,#0]
        0x08001da8:    68c1        .h      LDR      r1,[r0,#0xc]
        0x08001daa:    0749        I.      LSLS     r1,r1,#29
        0x08001dac:    d517        ..      BPL      0x8001dde ; UART_WaitOnFlagUntilTimeout + 90
        0x08001dae:    2d80        .-      CMP      r5,#0x80
        0x08001db0:    d015        ..      BEQ      0x8001dde ; UART_WaitOnFlagUntilTimeout + 90
        0x08001db2:    2d40        @-      CMP      r5,#0x40
        0x08001db4:    d013        ..      BEQ      0x8001dde ; UART_WaitOnFlagUntilTimeout + 90
        0x08001db6:    6801        .h      LDR      r1,[r0,#0]
        0x08001db8:    43c9        .C      MVNS     r1,r1
        0x08001dba:    0709        ..      LSLS     r1,r1,#28
        0x08001dbc:    d40f        ..      BMI      0x8001dde ; UART_WaitOnFlagUntilTimeout + 90
        0x08001dbe:    6801        .h      LDR      r1,[r0,#0]
        0x08001dc0:    2500        .%      MOVS     r5,#0
        0x08001dc2:    6840        @h      LDR      r0,[r0,#4]
        0x08001dc4:    9000        ..      STR      r0,[sp,#0]
        0x08001dc6:    4620         F      MOV      r0,r4
        0x08001dc8:    f7ffff2e    ....    BL       UART_EndRxTransfer ; 0x8001c28
        0x08001dcc:    2008        .       MOVS     r0,#8
        0x08001dce:    6460        `d      STR      r0,[r4,#0x44]
        0x08001dd0:    f8845040    ..@P    STRB     r5,[r4,#0x40]
        0x08001dd4:    2001        .       MOVS     r0,#1
        0x08001dd6:    e8bd83f8    ....    POP      {r3-r9,pc}
        0x08001dda:    2003        .       MOVS     r0,#3
        0x08001ddc:    e7fb        ..      B        0x8001dd6 ; UART_WaitOnFlagUntilTimeout + 82
        0x08001dde:    6820         h      LDR      r0,[r4,#0]
        0x08001de0:    6800        .h      LDR      r0,[r0,#0]
        0x08001de2:    ea350000    5...    BICS     r0,r5,r0
        0x08001de6:    d004        ..      BEQ      0x8001df2 ; UART_WaitOnFlagUntilTimeout + 110
        0x08001de8:    2000        .       MOVS     r0,#0
        0x08001dea:    42b8        .B      CMP      r0,r7
        0x08001dec:    d0d2        ..      BEQ      0x8001d94 ; UART_WaitOnFlagUntilTimeout + 16
        0x08001dee:    2000        .       MOVS     r0,#0
        0x08001df0:    e7f1        ..      B        0x8001dd6 ; UART_WaitOnFlagUntilTimeout + 82
        0x08001df2:    2001        .       MOVS     r0,#1
        0x08001df4:    e7f9        ..      B        0x8001dea ; UART_WaitOnFlagUntilTimeout + 102
    i.UsageFault_Handler
    UsageFault_Handler
        0x08001df6:    e7fe        ..      B        UsageFault_Handler ; 0x8001df6
    i.__NVIC_SetPriority
    __NVIC_SetPriority
        0x08001df8:    0709        ..      LSLS     r1,r1,#28
        0x08001dfa:    0e09        ..      LSRS     r1,r1,#24
        0x08001dfc:    2800        .(      CMP      r0,#0
        0x08001dfe:    db04        ..      BLT      0x8001e0a ; __NVIC_SetPriority + 18
        0x08001e00:    f10020e0    ...     ADD      r0,r0,#0xe000e000
        0x08001e04:    f8801400    ....    STRB     r1,[r0,#0x400]
        0x08001e08:    4770        pG      BX       lr
        0x08001e0a:    f000000f    ....    AND      r0,r0,#0xf
        0x08001e0e:    f10020e0    ...     ADD      r0,r0,#0xe000e000
        0x08001e12:    f8801d14    ....    STRB     r1,[r0,#0xd14]
        0x08001e16:    4770        pG      BX       lr
    i.__scatterload_copy
    __scatterload_copy
        0x08001e18:    e002        ..      B        0x8001e20 ; __scatterload_copy + 8
        0x08001e1a:    c808        ..      LDM      r0!,{r3}
        0x08001e1c:    1f12        ..      SUBS     r2,r2,#4
        0x08001e1e:    c108        ..      STM      r1!,{r3}
        0x08001e20:    2a00        .*      CMP      r2,#0
        0x08001e22:    d1fa        ..      BNE      0x8001e1a ; __scatterload_copy + 2
        0x08001e24:    4770        pG      BX       lr
    i.__scatterload_null
    __scatterload_null
        0x08001e26:    4770        pG      BX       lr
    i.__scatterload_zeroinit
    __scatterload_zeroinit
        0x08001e28:    2000        .       MOVS     r0,#0
        0x08001e2a:    e001        ..      B        0x8001e30 ; __scatterload_zeroinit + 8
        0x08001e2c:    c101        ..      STM      r1!,{r0}
        0x08001e2e:    1f12        ..      SUBS     r2,r2,#4
        0x08001e30:    2a00        .*      CMP      r2,#0
        0x08001e32:    d1fb        ..      BNE      0x8001e2c ; __scatterload_zeroinit + 4
        0x08001e34:    4770        pG      BX       lr
        0x08001e36:    0000        ..      MOVS     r0,r0
    i.buf_overflow
    buf_overflow
        0x08001e38:    b50e        ..      PUSH     {r1-r3,lr}
        0x08001e3a:    225a        Z"      MOVS     r2,#0x5a
        0x08001e3c:    f88d2000    ...     STRB     r2,[sp,#0]
        0x08001e40:    2256        V"      MOVS     r2,#0x56
        0x08001e42:    9202        ..      STR      r2,[sp,#8]
        0x08001e44:    f80d1000    ....    STRB     r1,[sp,r0]
        0x08001e48:    f89d1000    ....    LDRB     r1,[sp,#0]
        0x08001e4c:    a006        ..      ADR      r0,{pc}+0x1c ; 0x8001e68
        0x08001e4e:    f000f8df    ....    BL       myput_s_hex ; 0x8002010
        0x08001e52:    a008        ..      ADR      r0,{pc}+0x22 ; 0x8001e74
        0x08001e54:    f000f906    ....    BL       myputs ; 0x8002064
        0x08001e58:    a007        ..      ADR      r0,{pc}+0x20 ; 0x8001e78
        0x08001e5a:    9902        ..      LDR      r1,[sp,#8]
        0x08001e5c:    f000f8d8    ....    BL       myput_s_hex ; 0x8002010
        0x08001e60:    a004        ..      ADR      r0,{pc}+0x14 ; 0x8001e74
        0x08001e62:    f000f8ff    ....    BL       myputs ; 0x8002064
        0x08001e66:    bd0e        ..      POP      {r1-r3,pc}
    $d
        0x08001e68:    5b667562    buf[    DCD    1533441378
        0x08001e6c:    3d205d30    0] =    DCD    1025531184
        0x08001e70:    00000020     ...    DCD    32
        0x08001e74:    0000000a    ....    DCD    10
        0x08001e78:    73692061    a is    DCD    1936269409
        0x08001e7c:    00000020     ...    DCD    32
    $t
    i.check_timer
    check_timer
        0x08001e80:    b510        ..      PUSH     {r4,lr}
        0x08001e82:    f7fefca5    ....    BL       HAL_GetTick ; 0x80007d0
        0x08001e86:    4905        .I      LDR      r1,[pc,#20] ; [0x8001e9c] = 0x20000004
        0x08001e88:    680a        .h      LDR      r2,[r1,#0]
        0x08001e8a:    4290        .B      CMP      r0,r2
        0x08001e8c:    d304        ..      BCC      0x8001e98 ; check_timer + 24
        0x08001e8e:    e9d10101    ....    LDRD     r0,r1,[r1,#4]
        0x08001e92:    e8bd4010    ...@    POP      {r4,lr}
        0x08001e96:    4708        .G      BX       r1
        0x08001e98:    bd10        ..      POP      {r4,pc}
    $d
        0x08001e9a:    0000        ..      DCW    0
        0x08001e9c:    20000004    ...     DCD    536870916
    $t
    i.circle_buf_init
    circle_buf_init
        0x08001ea0:    2300        .#      MOVS     r3,#0
        0x08001ea2:    6043        C`      STR      r3,[r0,#4]
        0x08001ea4:    6003        .`      STR      r3,[r0,#0]
        0x08001ea6:    e9c01202    ....    STRD     r1,r2,[r0,#8]
        0x08001eaa:    4770        pG      BX       lr
    i.circle_buf_write
    circle_buf_write
        0x08001eac:    b510        ..      PUSH     {r4,lr}
        0x08001eae:    6842        Bh      LDR      r2,[r0,#4]
        0x08001eb0:    6884        .h      LDR      r4,[r0,#8]
        0x08001eb2:    4613        .F      MOV      r3,r2
        0x08001eb4:    1c52        R.      ADDS     r2,r2,#1
        0x08001eb6:    4294        .B      CMP      r4,r2
        0x08001eb8:    d100        ..      BNE      0x8001ebc ; circle_buf_write + 16
        0x08001eba:    2200        ."      MOVS     r2,#0
        0x08001ebc:    6804        .h      LDR      r4,[r0,#0]
        0x08001ebe:    4294        .B      CMP      r4,r2
        0x08001ec0:    d004        ..      BEQ      0x8001ecc ; circle_buf_write + 32
        0x08001ec2:    68c4        .h      LDR      r4,[r0,#0xc]
        0x08001ec4:    54e1        .T      STRB     r1,[r4,r3]
        0x08001ec6:    6042        B`      STR      r2,[r0,#4]
        0x08001ec8:    2000        .       MOVS     r0,#0
        0x08001eca:    bd10        ..      POP      {r4,pc}
        0x08001ecc:    f04f30ff    O..0    MOV      r0,#0xffffffff
        0x08001ed0:    bd10        ..      POP      {r4,pc}
        0x08001ed2:    0000        ..      MOVS     r0,r0
    i.key_timeout_func
    key_timeout_func
        0x08001ed4:    480b        .H      LDR      r0,[pc,#44] ; [0x8001f04] = 0x20000000
        0x08001ed6:    b510        ..      PUSH     {r4,lr}
        0x08001ed8:    6801        .h      LDR      r1,[r0,#0]
        0x08001eda:    1c49        I.      ADDS     r1,r1,#1
        0x08001edc:    6001        .`      STR      r1,[r0,#0]
        0x08001ede:    4909        .I      LDR      r1,[pc,#36] ; [0x8001f04] = 0x20000000
        0x08001ee0:    f04f30ff    O..0    MOV      r0,#0xffffffff
        0x08001ee4:    1d09        ..      ADDS     r1,r1,#4
        0x08001ee6:    6008        .`      STR      r0,[r1,#0]
        0x08001ee8:    2108        .!      MOVS     r1,#8
        0x08001eea:    4807        .H      LDR      r0,[pc,#28] ; [0x8001f08] = 0x40021000
        0x08001eec:    f7fefc66    ..f.    BL       HAL_GPIO_ReadPin ; 0x80007bc
        0x08001ef0:    b128        (.      CBZ      r0,0x8001efe ; key_timeout_func + 42
        0x08001ef2:    2181        .!      MOVS     r1,#0x81
        0x08001ef4:    e8bd4010    ...@    POP      {r4,lr}
        0x08001ef8:    4804        .H      LDR      r0,[pc,#16] ; [0x8001f0c] = 0x2000008c
        0x08001efa:    f7ffbfd7    ....    B.W      circle_buf_write ; 0x8001eac
        0x08001efe:    2101        .!      MOVS     r1,#1
        0x08001f00:    e7f8        ..      B        0x8001ef4 ; key_timeout_func + 32
    $d
        0x08001f02:    0000        ..      DCW    0
        0x08001f04:    20000000    ...     DCD    536870912
        0x08001f08:    40021000    ...@    DCD    1073876992
        0x08001f0c:    2000008c    ...     DCD    536871052
    $t
    i.main
    main
        0x08001f10:    b508        ..      PUSH     {r3,lr}
        0x08001f12:    f7fef9e5    ....    BL       AA ; 0x80002e0
        0x08001f16:    a42a        *.      ADR      r4,{pc}+0xaa ; 0x8001fc0
        0x08001f18:    a52e        ..      ADR      r5,{pc}+0xbc ; 0x8001fd4
        0x08001f1a:    f7fefe8f    ....    BL       HAL_Init ; 0x8000c3c
        0x08001f1e:    f7fffe31    ..1.    BL       SystemClock_Config ; 0x8001b84
        0x08001f22:    4a32        2J      LDR      r2,[pc,#200] ; [0x8001fec] = 0x20000028
        0x08001f24:    2164        d!      MOVS     r1,#0x64
        0x08001f26:    f1020064    ..d.    ADD      r0,r2,#0x64
        0x08001f2a:    f7ffffb9    ....    BL       circle_buf_init ; 0x8001ea0
        0x08001f2e:    f7fffc95    ....    BL       MX_GPIO_Init ; 0x800185c
        0x08001f32:    f7fffce7    ....    BL       MX_I2C1_Init ; 0x8001904
        0x08001f36:    f7fffd05    ....    BL       MX_USART1_UART_Init ; 0x8001944
        0x08001f3a:    f7fffd37    ..7.    BL       OLED_Init ; 0x80019ac
        0x08001f3e:    f7fffd1f    ....    BL       OLED_Clear ; 0x8001980
        0x08001f42:    2100        .!      MOVS     r1,#0
        0x08001f44:    a22a        *.      ADR      r2,{pc}+0xac ; 0x8001ff0
        0x08001f46:    4608        .F      MOV      r0,r1
        0x08001f48:    f7fffd7a    ..z.    BL       OLED_PrintString ; 0x8001a40
        0x08001f4c:    a22b        +.      ADR      r2,{pc}+0xb0 ; 0x8001ffc
        0x08001f4e:    2102        .!      MOVS     r1,#2
        0x08001f50:    2000        .       MOVS     r0,#0
        0x08001f52:    f7fffd75    ..u.    BL       OLED_PrintString ; 0x8001a40
        0x08001f56:    4620         F      MOV      r0,r4
        0x08001f58:    f7fef989    ....    BL       strlen ; 0x800026e
        0x08001f5c:    b282        ..      UXTH     r2,r0
        0x08001f5e:    f44f767a    O.zv    MOV      r6,#0x3e8
        0x08001f62:    4633        3F      MOV      r3,r6
        0x08001f64:    4621        !F      MOV      r1,r4
        0x08001f66:    4828        (H      LDR      r0,[pc,#160] ; [0x8002008] = 0x200000f0
        0x08001f68:    f7fffa70    ..p.    BL       HAL_UART_Transmit ; 0x800144c
        0x08001f6c:    2141        A!      MOVS     r1,#0x41
        0x08001f6e:    2008        .       MOVS     r0,#8
        0x08001f70:    f7ffff62    ..b.    BL       buf_overflow ; 0x8001e38
        0x08001f74:    f7fefb08    ....    BL       EnableDiv0Bug ; 0x8000588
        0x08001f78:    4634        4F      MOV      r4,r6
        0x08001f7a:    4628        (F      MOV      r0,r5
        0x08001f7c:    f7fef977    ..w.    BL       strlen ; 0x800026e
        0x08001f80:    b282        ..      UXTH     r2,r0
        0x08001f82:    4623        #F      MOV      r3,r4
        0x08001f84:    4629        )F      MOV      r1,r5
        0x08001f86:    4820         H      LDR      r0,[pc,#128] ; [0x8002008] = 0x200000f0
        0x08001f88:    f7fffa60    ..`.    BL       HAL_UART_Transmit ; 0x800144c
        0x08001f8c:    2364        d#      MOVS     r3,#0x64
        0x08001f8e:    2201        ."      MOVS     r2,#1
        0x08001f90:    4669        iF      MOV      r1,sp
        0x08001f92:    481d        .H      LDR      r0,[pc,#116] ; [0x8002008] = 0x200000f0
        0x08001f94:    f7fffa02    ....    BL       HAL_UART_Receive ; 0x800139c
        0x08001f98:    2800        .(      CMP      r0,#0
        0x08001f9a:    d1f7        ..      BNE      0x8001f8c ; main + 124
        0x08001f9c:    f89d0000    ....    LDRB     r0,[sp,#0]
        0x08001fa0:    4623        #F      MOV      r3,r4
        0x08001fa2:    1c40        @.      ADDS     r0,r0,#1
        0x08001fa4:    f88d0000    ....    STRB     r0,[sp,#0]
        0x08001fa8:    2201        ."      MOVS     r2,#1
        0x08001faa:    4669        iF      MOV      r1,sp
        0x08001fac:    4816        .H      LDR      r0,[pc,#88] ; [0x8002008] = 0x200000f0
        0x08001fae:    f7fffa4d    ..M.    BL       HAL_UART_Transmit ; 0x800144c
        0x08001fb2:    4623        #F      MOV      r3,r4
        0x08001fb4:    2202        ."      MOVS     r2,#2
        0x08001fb6:    a115        ..      ADR      r1,{pc}+0x56 ; 0x800200c
        0x08001fb8:    4813        .H      LDR      r0,[pc,#76] ; [0x8002008] = 0x200000f0
        0x08001fba:    f7fffa47    ..G.    BL       HAL_UART_Transmit ; 0x800144c
        0x08001fbe:    e7dc        ..      B        0x8001f7a ; main + 106
    $d
        0x08001fc0:    2e777777    www.    DCD    779581303
        0x08001fc4:    61303031    100a    DCD    1630548017
        0x08001fc8:    6e2e6b73    sk.n    DCD    1848535923
        0x08001fcc:    0a0d7465    et..    DCD    168653925
        0x08001fd0:    00000000    ....    DCD    0
        0x08001fd4:    61656c50    Plea    DCD    1634036816
        0x08001fd8:    65206573    se e    DCD    1696621939
        0x08001fdc:    7265746e    nter    DCD    1919251566
        0x08001fe0:    63206120     a c    DCD    1663066400
        0x08001fe4:    3a726168    har:    DCD    980574568
        0x08001fe8:    000a0d20     ...    DCD    658720
        0x08001fec:    20000028    (..     DCD    536870952
        0x08001ff0:    20746e43    Cnt     DCD    544501315
        0x08001ff4:    20202020            DCD    538976288
        0x08001ff8:    0000203a    : ..    DCD    8250
        0x08001ffc:    2079654b    Key     DCD    544826699
        0x08002000:    206c6176    val     DCD    543973750
        0x08002004:    0000203a    : ..    DCD    8250
        0x08002008:    200000f0    ...     DCD    536871152
        0x0800200c:    00000a0d    ....    DCD    2573
    $t
    i.myput_s_hex
    myput_s_hex
        0x08002010:    b510        ..      PUSH     {r4,lr}
        0x08002012:    460c        .F      MOV      r4,r1
        0x08002014:    f000f826    ..&.    BL       myputs ; 0x8002064
        0x08002018:    4620         F      MOV      r0,r4
        0x0800201a:    e8bd4010    ...@    POP      {r4,lr}
        0x0800201e:    f000b809    ....    B.W      myputhex ; 0x8002034
        0x08002022:    0000        ..      MOVS     r0,r0
    i.myputchar
    myputchar
        0x08002024:    4902        .I      LDR      r1,[pc,#8] ; [0x8002030] = 0x40011000
        0x08002026:    680a        .h      LDR      r2,[r1,#0]
        0x08002028:    0612        ..      LSLS     r2,r2,#24
        0x0800202a:    d5fc        ..      BPL      0x8002026 ; myputchar + 2
        0x0800202c:    6048        H`      STR      r0,[r1,#4]
        0x0800202e:    4770        pG      BX       lr
    $d
        0x08002030:    40011000    ...@    DCD    1073811456
    $t
    i.myputhex
    myputhex
        0x08002034:    b570        p.      PUSH     {r4-r6,lr}
        0x08002036:    4605        .F      MOV      r5,r0
        0x08002038:    a009        ..      ADR      r0,{pc}+0x28 ; 0x8002060
        0x0800203a:    f000f813    ....    BL       myputs ; 0x8002064
        0x0800203e:    2407        .$      MOVS     r4,#7
        0x08002040:    00a0        ..      LSLS     r0,r4,#2
        0x08002042:    fa25f000    %...    LSR      r0,r5,r0
        0x08002046:    f000000f    ....    AND      r0,r0,#0xf
        0x0800204a:    2809        .(      CMP      r0,#9
        0x0800204c:    d801        ..      BHI      0x8002052 ; myputhex + 30
        0x0800204e:    3030        00      ADDS     r0,r0,#0x30
        0x08002050:    e000        ..      B        0x8002054 ; myputhex + 32
        0x08002052:    3037        70      ADDS     r0,r0,#0x37
        0x08002054:    f7ffffe6    ....    BL       myputchar ; 0x8002024
        0x08002058:    1e64        d.      SUBS     r4,r4,#1
        0x0800205a:    d5f1        ..      BPL      0x8002040 ; myputhex + 12
        0x0800205c:    bd70        p.      POP      {r4-r6,pc}
    $d
        0x0800205e:    0000        ..      DCW    0
        0x08002060:    00007830    0x..    DCD    30768
    $t
    i.myputs
    myputs
        0x08002064:    b510        ..      PUSH     {r4,lr}
        0x08002066:    4604        .F      MOV      r4,r0
        0x08002068:    e003        ..      B        0x8002072 ; myputs + 14
        0x0800206a:    bf00        ..      NOP      
        0x0800206c:    f7ffffda    ....    BL       myputchar ; 0x8002024
        0x08002070:    1c64        d.      ADDS     r4,r4,#1
        0x08002072:    7820         x      LDRB     r0,[r4,#0]
        0x08002074:    2800        .(      CMP      r0,#0
        0x08002076:    d1f9        ..      BNE      0x800206c ; myputs + 8
        0x08002078:    bd10        ..      POP      {r4,pc}
    $d.realdata
    .constdata
    AHBPrescTable
        0x0800207a:    0000        ..      DCW    0
        0x0800207c:    00000000    ....    DCD    0
        0x08002080:    02010000    ....    DCD    33619968
        0x08002084:    07060403    ....    DCD    117834755
        0x08002088:    0908        ..      DCW    2312
    .constdata
    APBPrescTable
        0x0800208a:    0000        ..      DCW    0
        0x0800208c:    02010000    ....    DCD    33619968
        0x08002090:    0403        ..      DCW    1027
    .constdata
    ascii_font
        0x08002092:    0000        ..      DCW    0
        0x08002094:    00000000    ....    DCD    0
        0x08002098:    00000000    ....    DCD    0
        0x0800209c:    00000000    ....    DCD    0
        0x080020a0:    fe000000    ....    DCD    4261412864
        0x080020a4:    02020202    ....    DCD    33686018
        0x080020a8:    3f000202    ...?    DCD    1056965122
        0x080020ac:    20202020            DCD    538976288
        0x080020b0:    00002020      ..    DCD    8224
        0x080020b4:    00000000    ....    DCD    0
        0x080020b8:    00000000    ....    DCD    0
        0x080020bc:    00000000    ....    DCD    0
        0x080020c0:    fe000000    ....    DCD    4261412864
        0x080020c4:    02020202    ....    DCD    33686018
        0x080020c8:    3f000202    ...?    DCD    1056965122
        0x080020cc:    20202020            DCD    538976288
        0x080020d0:    fe002020      ..    DCD    4261421088
        0x080020d4:    02020202    ....    DCD    33686018
        0x080020d8:    3f000202    ...?    DCD    1056965122
        0x080020dc:    20202020            DCD    538976288
        0x080020e0:    fe002020      ..    DCD    4261421088
        0x080020e4:    02020202    ....    DCD    33686018
        0x080020e8:    3f000202    ...?    DCD    1056965122
        0x080020ec:    20202020            DCD    538976288
        0x080020f0:    fe002020      ..    DCD    4261421088
        0x080020f4:    02020202    ....    DCD    33686018
        0x080020f8:    3f000202    ...?    DCD    1056965122
        0x080020fc:    20202020            DCD    538976288
        0x08002100:    fe002020      ..    DCD    4261421088
        0x08002104:    02020202    ....    DCD    33686018
        0x08002108:    3f000202    ...?    DCD    1056965122
        0x0800210c:    20202020            DCD    538976288
        0x08002110:    fe002020      ..    DCD    4261421088
        0x08002114:    02020202    ....    DCD    33686018
        0x08002118:    3f000202    ...?    DCD    1056965122
        0x0800211c:    20202020            DCD    538976288
        0x08002120:    00002020      ..    DCD    8224
        0x08002124:    00000000    ....    DCD    0
        0x08002128:    00000000    ....    DCD    0
        0x0800212c:    00000000    ....    DCD    0
        0x08002130:    00000000    ....    DCD    0
        0x08002134:    00000000    ....    DCD    0
        0x08002138:    00000000    ....    DCD    0
        0x0800213c:    00000000    ....    DCD    0
        0x08002140:    00000000    ....    DCD    0
        0x08002144:    00000000    ....    DCD    0
        0x08002148:    00000000    ....    DCD    0
        0x0800214c:    00000000    ....    DCD    0
        0x08002150:    fe000000    ....    DCD    4261412864
        0x08002154:    02020202    ....    DCD    33686018
        0x08002158:    3f000202    ...?    DCD    1056965122
        0x0800215c:    20202020            DCD    538976288
        0x08002160:    fe002020      ..    DCD    4261421088
        0x08002164:    02020202    ....    DCD    33686018
        0x08002168:    3f000202    ...?    DCD    1056965122
        0x0800216c:    20202020            DCD    538976288
        0x08002170:    fe002020      ..    DCD    4261421088
        0x08002174:    02020202    ....    DCD    33686018
        0x08002178:    3f000202    ...?    DCD    1056965122
        0x0800217c:    20202020            DCD    538976288
        0x08002180:    fe002020      ..    DCD    4261421088
        0x08002184:    02020202    ....    DCD    33686018
        0x08002188:    3f000202    ...?    DCD    1056965122
        0x0800218c:    20202020            DCD    538976288
        0x08002190:    fe002020      ..    DCD    4261421088
        0x08002194:    02020202    ....    DCD    33686018
        0x08002198:    3f000202    ...?    DCD    1056965122
        0x0800219c:    20202020            DCD    538976288
        0x080021a0:    fe002020      ..    DCD    4261421088
        0x080021a4:    02020202    ....    DCD    33686018
        0x080021a8:    3f000202    ...?    DCD    1056965122
        0x080021ac:    20202020            DCD    538976288
        0x080021b0:    fe002020      ..    DCD    4261421088
        0x080021b4:    02020202    ....    DCD    33686018
        0x080021b8:    3f000202    ...?    DCD    1056965122
        0x080021bc:    20202020            DCD    538976288
        0x080021c0:    fe002020      ..    DCD    4261421088
        0x080021c4:    02020202    ....    DCD    33686018
        0x080021c8:    3f000202    ...?    DCD    1056965122
        0x080021cc:    20202020            DCD    538976288
        0x080021d0:    fe002020      ..    DCD    4261421088
        0x080021d4:    02020202    ....    DCD    33686018
        0x080021d8:    3f000202    ...?    DCD    1056965122
        0x080021dc:    20202020            DCD    538976288
        0x080021e0:    fe002020      ..    DCD    4261421088
        0x080021e4:    02020202    ....    DCD    33686018
        0x080021e8:    3f000202    ...?    DCD    1056965122
        0x080021ec:    20202020            DCD    538976288
        0x080021f0:    fe002020      ..    DCD    4261421088
        0x080021f4:    02020202    ....    DCD    33686018
        0x080021f8:    3f000202    ...?    DCD    1056965122
        0x080021fc:    20202020            DCD    538976288
        0x08002200:    fe002020      ..    DCD    4261421088
        0x08002204:    02020202    ....    DCD    33686018
        0x08002208:    3f000202    ...?    DCD    1056965122
        0x0800220c:    20202020            DCD    538976288
        0x08002210:    fe002020      ..    DCD    4261421088
        0x08002214:    02020202    ....    DCD    33686018
        0x08002218:    3f000202    ...?    DCD    1056965122
        0x0800221c:    20202020            DCD    538976288
        0x08002220:    fe002020      ..    DCD    4261421088
        0x08002224:    02020202    ....    DCD    33686018
        0x08002228:    3f000202    ...?    DCD    1056965122
        0x0800222c:    20202020            DCD    538976288
        0x08002230:    fe002020      ..    DCD    4261421088
        0x08002234:    02020202    ....    DCD    33686018
        0x08002238:    3f000202    ...?    DCD    1056965122
        0x0800223c:    20202020            DCD    538976288
        0x08002240:    fe002020      ..    DCD    4261421088
        0x08002244:    02020202    ....    DCD    33686018
        0x08002248:    3f000202    ...?    DCD    1056965122
        0x0800224c:    20202020            DCD    538976288
        0x08002250:    00002020      ..    DCD    8224
        0x08002254:    00000000    ....    DCD    0
        0x08002258:    00000000    ....    DCD    0
        0x0800225c:    00000000    ....    DCD    0
        0x08002260:    00000000    ....    DCD    0
        0x08002264:    00000000    ....    DCD    0
        0x08002268:    00000000    ....    DCD    0
        0x0800226c:    00000000    ....    DCD    0
        0x08002270:    00000000    ....    DCD    0
        0x08002274:    00000000    ....    DCD    0
        0x08002278:    00000000    ....    DCD    0
        0x0800227c:    00000000    ....    DCD    0
        0x08002280:    00000000    ....    DCD    0
        0x08002284:    00000000    ....    DCD    0
        0x08002288:    00000000    ....    DCD    0
        0x0800228c:    00000000    ....    DCD    0
        0x08002290:    00000000    ....    DCD    0
        0x08002294:    00000000    ....    DCD    0
        0x08002298:    00000000    ....    DCD    0
        0x0800229c:    00000000    ....    DCD    0
        0x080022a0:    00000000    ....    DCD    0
        0x080022a4:    0000f800    ....    DCD    63488
        0x080022a8:    00000000    ....    DCD    0
        0x080022ac:    00003300    .3..    DCD    13056
        0x080022b0:    10000000    ....    DCD    268435456
        0x080022b4:    0c10020c    ....    DCD    202375692
        0x080022b8:    00000002    ....    DCD    2
        0x080022bc:    00000000    ....    DCD    0
        0x080022c0:    40000000    ...@    DCD    1073741824
        0x080022c4:    c04078c0    .x@.    DCD    3225450688
        0x080022c8:    04000078    x...    DCD    67108984
        0x080022cc:    3f04043f    ?..?    DCD    1057227839
        0x080022d0:    70000004    ...p    DCD    1879048196
        0x080022d4:    08fc8888    ....    DCD    150767752
        0x080022d8:    18000030    0...    DCD    402653232
        0x080022dc:    21ff2020      .!    DCD    570368032
        0x080022e0:    08f0001e    ....    DCD    149946398
        0x080022e4:    186080f0    ..`.    DCD    408977648
        0x080022e8:    31000000    ...1    DCD    822083584
        0x080022ec:    211e030c    ...!    DCD    555614988
        0x080022f0:    f000001e    ....    DCD    4026531870
        0x080022f4:    00708808    ..p.    DCD    7374856
        0x080022f8:    211e0000    ...!    DCD    555614208
        0x080022fc:    27192c23    #,.'    DCD    655961123
        0x08002300:    12001021    !...    DCD    301994017
        0x08002304:    0000000e    ....    DCD    14
        0x08002308:    00000000    ....    DCD    0
        0x0800230c:    00000000    ....    DCD    0
        0x08002310:    00000000    ....    DCD    0
        0x08002314:    0418e000    ....    DCD    68739072
        0x08002318:    00000002    ....    DCD    2
        0x0800231c:    20180700    ...     DCD    538445568
        0x08002320:    02000040    @...    DCD    33554496
        0x08002324:    00e01804    ....    DCD    14686212
        0x08002328:    40000000    ...@    DCD    1073741824
        0x0800232c:    00071820     ...    DCD    464928
        0x08002330:    40400000    ..@@    DCD    1077936128
        0x08002334:    4080f080    ...@    DCD    1082192000
        0x08002338:    02020040    @...    DCD    33685568
        0x0800233c:    02010f01    ....    DCD    33623809
        0x08002340:    00000002    ....    DCD    2
        0x08002344:    00e00000    ....    DCD    14680064
        0x08002348:    01000000    ....    DCD    16777216
        0x0800234c:    010f0101    ....    DCD    17760513
        0x08002350:    00000101    ....    DCD    257
        0x08002354:    00000000    ....    DCD    0
        0x08002358:    90000000    ....    DCD    2415919104
        0x0800235c:    00000070    p...    DCD    112
        0x08002360:    00000000    ....    DCD    0
        0x08002364:    00000000    ....    DCD    0
        0x08002368:    01000000    ....    DCD    16777216
        0x0800236c:    01010101    ....    DCD    16843009
        0x08002370:    00000001    ....    DCD    1
        0x08002374:    00000000    ....    DCD    0
        0x08002378:    30000000    ...0    DCD    805306368
        0x0800237c:    00000030    0...    DCD    48
        0x08002380:    00000000    ....    DCD    0
        0x08002384:    38c00000    ...8    DCD    952107008
        0x08002388:    60000004    ...`    DCD    1610612740
        0x0800238c:    00000718    ....    DCD    1816
        0x08002390:    e0000000    ....    DCD    3758096384
        0x08002394:    10080810    ....    DCD    268961808
        0x08002398:    0f0000e0    ....    DCD    251658464
        0x0800239c:    10202010    .  .    DCD    270540816
        0x080023a0:    0000000f    ....    DCD    15
        0x080023a4:    00f81010    ....    DCD    16257040
        0x080023a8:    00000000    ....    DCD    0
        0x080023ac:    203f2020      ?     DCD    541007904
        0x080023b0:    70000020     ..p    DCD    1879048224
        0x080023b4:    08080808    ....    DCD    134744072
        0x080023b8:    300000f0    ...0    DCD    805306608
        0x080023bc:    21222428    ($"!    DCD    555885608
        0x080023c0:    30000030    0..0    DCD    805306416
        0x080023c4:    88080808    ....    DCD    2282227720
        0x080023c8:    18000070    p...    DCD    402653296
        0x080023cc:    22212120     !!"    DCD    572596512
        0x080023d0:    0000001c    ....    DCD    28
        0x080023d4:    f8304080    .@0.    DCD    4163911808
        0x080023d8:    06000000    ....    DCD    100663296
        0x080023dc:    3f242405    .$$?    DCD    1059333125
        0x080023e0:    f8002424    $$..    DCD    4160758820
        0x080023e4:    08888888    ....    DCD    143165576
        0x080023e8:    19000008    ....    DCD    419430408
        0x080023ec:    11202020       .    DCD    287318048
        0x080023f0:    e000000e    ....    DCD    3758096398
        0x080023f4:    90888810    ....    DCD    2424866832
        0x080023f8:    0f000000    ....    DCD    251658240
        0x080023fc:    20202011    .       DCD    538976273
        0x08002400:    1800001f    ....    DCD    402653215
        0x08002404:    68880808    ...h    DCD    1753745416
        0x08002408:    00000018    ....    DCD    24
        0x0800240c:    00013e00    .>..    DCD    81408
        0x08002410:    70000000    ...p    DCD    1879048192
        0x08002414:    88080888    ....    DCD    2282227848
        0x08002418:    1c000070    p...    DCD    469762160
        0x0800241c:    22212122    "!!"    DCD    572596514
        0x08002420:    f000001c    ....    DCD    4026531868
        0x08002424:    10080808    ....    DCD    268961800
        0x08002428:    010000e0    ....    DCD    16777440
        0x0800242c:    11222212    ."".    DCD    287449618
        0x08002430:    0000000f    ....    DCD    15
        0x08002434:    00c0c000    ....    DCD    12632064
        0x08002438:    00000000    ....    DCD    0
        0x0800243c:    00303000    .00.    DCD    3158016
        0x08002440:    00000000    ....    DCD    0
        0x08002444:    00008000    ....    DCD    32768
        0x08002448:    00000000    ....    DCD    0
        0x0800244c:    0000e000    ....    DCD    57344
        0x08002450:    00000000    ....    DCD    0
        0x08002454:    10204080    .@ .    DCD    270549120
        0x08002458:    01000008    ....    DCD    16777224
        0x0800245c:    10080402    ....    DCD    268960770
        0x08002460:    40000020     ..@    DCD    1073741856
        0x08002464:    40404040    @@@@    DCD    1077952576
        0x08002468:    02000040    @...    DCD    33554496
        0x0800246c:    02020202    ....    DCD    33686018
        0x08002470:    08000002    ....    DCD    134217730
        0x08002474:    80402010    . @.    DCD    2151686160
        0x08002478:    20000000    ...     DCD    536870912
        0x0800247c:    02040810    ....    DCD    33818640
        0x08002480:    70000001    ...p    DCD    1879048193
        0x08002484:    88080848    H...    DCD    2282227784
        0x08002488:    00000070    p...    DCD    112
        0x0800248c:    00373000    .07.    DCD    3616768
        0x08002490:    30c00000    ...0    DCD    817889280
        0x08002494:    10e828c8    .(..    DCD    283650248
        0x08002498:    180700e0    ....    DCD    403112160
        0x0800249c:    282f2827    '(/(    DCD    674179111
        0x080024a0:    00000017    ....    DCD    23
        0x080024a4:    00e038c0    .8..    DCD    14694592
        0x080024a8:    3c200000    .. <    DCD    1008730112
        0x080024ac:    27020223    #..'    DCD    654443043
        0x080024b0:    f8082038    8 ..    DCD    4161282104
        0x080024b4:    70888888    ...p    DCD    1887996040
        0x080024b8:    3f200000    .. ?    DCD    1059061760
        0x080024bc:    11202020       .    DCD    287318048
        0x080024c0:    30c0000e    ...0    DCD    817889294
        0x080024c4:    08080808    ....    DCD    134744072
        0x080024c8:    18070038    8...    DCD    403111992
        0x080024cc:    10202020       .    DCD    270540832
        0x080024d0:    f8080008    ....    DCD    4161273864
        0x080024d4:    10080808    ....    DCD    268961800
        0x080024d8:    3f2000e0    .. ?    DCD    1059061984
        0x080024dc:    10202020       .    DCD    270540832
        0x080024e0:    f808000f    ....    DCD    4161273871
        0x080024e4:    08e88888    ....    DCD    149457032
        0x080024e8:    3f200010    .. ?    DCD    1059061776
        0x080024ec:    20232020      #     DCD    539172896
        0x080024f0:    f8080018    ....    DCD    4161273880
        0x080024f4:    08e88888    ....    DCD    149457032
        0x080024f8:    3f200010    .. ?    DCD    1059061776
        0x080024fc:    00030020     ...    DCD    196640
        0x08002500:    30c00000    ...0    DCD    817889280
        0x08002504:    38080808    ...8    DCD    940050440
        0x08002508:    18070000    ....    DCD    403111936
        0x0800250c:    1e222020      ".    DCD    505552928
        0x08002510:    f8080002    ....    DCD    4161273858
        0x08002514:    08000008    ....    DCD    134217736
        0x08002518:    3f2008f8    .. ?    DCD    1059064056
        0x0800251c:    21010121    !..!    DCD    553713953
        0x08002520:    0800203f    ? ..    DCD    134225983
        0x08002524:    0808f808    ....    DCD    134805512
        0x08002528:    20000000    ...     DCD    536870912
        0x0800252c:    20203f20     ?      DCD    538984224
        0x08002530:    00000000    ....    DCD    0
        0x08002534:    08f80808    ....    DCD    150472712
        0x08002538:    80c00008    ....    DCD    2160066568
        0x0800253c:    007f8080    ....    DCD    8355968
        0x08002540:    f8080000    ....    DCD    4161273856
        0x08002544:    1828c088    ..(.    DCD    405323912
        0x08002548:    3f200008    .. ?    DCD    1059061768
        0x0800254c:    38260120     .&8    DCD    942014752
        0x08002550:    f8080020     ...    DCD    4161273888
        0x08002554:    00000008    ....    DCD    8
        0x08002558:    3f200000    .. ?    DCD    1059061760
        0x0800255c:    20202020            DCD    538976288
        0x08002560:    f8080030    0...    DCD    4161273904
        0x08002564:    f8f800f8    ....    DCD    4177002744
        0x08002568:    3f200008    .. ?    DCD    1059061768
        0x0800256c:    3f013e01    .>.?    DCD    1057046017
        0x08002570:    f8080020     ...    DCD    4161273888
        0x08002574:    0800c030    0...    DCD    134266928
        0x08002578:    3f2008f8    .. ?    DCD    1059064056
        0x0800257c:    18070020     ...    DCD    403111968
        0x08002580:    10e0003f    ?...    DCD    283115583
        0x08002584:    10080808    ....    DCD    268961800
        0x08002588:    100f00e0    ....    DCD    269418720
        0x0800258c:    10202020       .    DCD    270540832
        0x08002590:    f808000f    ....    DCD    4161273871
        0x08002594:    08080808    ....    DCD    134744072
        0x08002598:    3f2000f0    .. ?    DCD    1059062000
        0x0800259c:    01010121    !...    DCD    16843041
        0x080025a0:    10e00000    ....    DCD    283115520
        0x080025a4:    10080808    ....    DCD    268961800
        0x080025a8:    100f00e0    ....    DCD    269418720
        0x080025ac:    50302828    ((0P    DCD    1345333288
        0x080025b0:    f808004f    O...    DCD    4161273935
        0x080025b4:    88888888    ....    DCD    2290649224
        0x080025b8:    3f200070    p. ?    DCD    1059061872
        0x080025bc:    0c030020     ...    DCD    201523232
        0x080025c0:    70002030    0 .p    DCD    1879056432
        0x080025c4:    08080888    ....    DCD    134744200
        0x080025c8:    38000038    8..8    DCD    939524152
        0x080025cc:    22212120     !!"    DCD    572596512
        0x080025d0:    0818001c    ....    DCD    135790620
        0x080025d4:    0808f808    ....    DCD    134805512
        0x080025d8:    00000018    ....    DCD    24
        0x080025dc:    00203f20     ? .    DCD    2113312
        0x080025e0:    f8080000    ....    DCD    4161273856
        0x080025e4:    08000008    ....    DCD    134217736
        0x080025e8:    1f0008f8    ....    DCD    520095992
        0x080025ec:    20202020            DCD    538976288
        0x080025f0:    7808001f    ...x    DCD    2013790239
        0x080025f4:    c8000088    ....    DCD    3355443336
        0x080025f8:    00000838    8...    DCD    2104
        0x080025fc:    010e3807    .8..    DCD    17709063
        0x08002600:    f8080000    ....    DCD    4161273856
        0x08002604:    f800f800    ....    DCD    4160813056
        0x08002608:    03000008    ....    DCD    50331656
        0x0800260c:    033e013e    >.>.    DCD    54395198
        0x08002610:    18080000    ....    DCD    403177472
        0x08002614:    68808068    h..h    DCD    1753251944
        0x08002618:    30200818    .. 0    DCD    807405592
        0x0800261c:    2c03032c    ,..,    DCD    738394924
        0x08002620:    38082030    0 .8    DCD    940056624
        0x08002624:    38c800c8    ...8    DCD    952631496
        0x08002628:    00000008    ....    DCD    8
        0x0800262c:    00203f20     ? .    DCD    2113312
        0x08002630:    08100000    ....    DCD    135266304
        0x08002634:    38c80808    ...8    DCD    952633352
        0x08002638:    38200008    .. 8    DCD    941621256
        0x0800263c:    20202126    &!      DCD    538976550
        0x08002640:    00000018    ....    DCD    24
        0x08002644:    0202fe00    ....    DCD    33750528
        0x08002648:    00000002    ....    DCD    2
        0x0800264c:    40407f00    ..@@    DCD    1077968640
        0x08002650:    04000040    @...    DCD    67108928
        0x08002654:    0000c038    8...    DCD    49208
        0x08002658:    00000000    ....    DCD    0
        0x0800265c:    38060100    ...8    DCD    939917568
        0x08002660:    020000c0    ....    DCD    33554624
        0x08002664:    00fe0202    ....    DCD    16646658
        0x08002668:    40000000    ...@    DCD    1073741824
        0x0800266c:    007f4040    @@..    DCD    8339520
        0x08002670:    00000000    ....    DCD    0
        0x08002674:    04020204    ....    DCD    67240452
        0x08002678:    00000000    ....    DCD    0
        0x0800267c:    00000000    ....    DCD    0
        0x08002680:    00000000    ....    DCD    0
        0x08002684:    00000000    ....    DCD    0
        0x08002688:    80800000    ....    DCD    2155872256
        0x0800268c:    80808080    ....    DCD    2155905152
        0x08002690:    02008080    ....    DCD    33587328
        0x08002694:    00000402    ....    DCD    1026
        0x08002698:    00000000    ....    DCD    0
        0x0800269c:    00000000    ....    DCD    0
        0x080026a0:    00000000    ....    DCD    0
        0x080026a4:    00808080    ....    DCD    8421504
        0x080026a8:    19000000    ....    DCD    419430400
        0x080026ac:    3f122424    $$.?    DCD    1058153508
        0x080026b0:    f0100020     ...    DCD    4027580448
        0x080026b4:    00808000    ....    DCD    8421376
        0x080026b8:    3f000000    ...?    DCD    1056964608
        0x080026bc:    11202011    .  .    DCD    287318033
        0x080026c0:    0000000e    ....    DCD    14
        0x080026c4:    80808000    ....    DCD    2155905024
        0x080026c8:    0e000000    ....    DCD    234881024
        0x080026cc:    20202011    .       DCD    538976273
        0x080026d0:    00000011    ....    DCD    17
        0x080026d4:    90808080    ....    DCD    2424340608
        0x080026d8:    1f0000f0    ....    DCD    520093936
        0x080026dc:    10202020       .    DCD    270540832
        0x080026e0:    0000203f    ? ..    DCD    8255
        0x080026e4:    80808080    ....    DCD    2155905152
        0x080026e8:    1f000000    ....    DCD    520093696
        0x080026ec:    24242424    $$$$    DCD    606348324
        0x080026f0:    80000017    ....    DCD    2147483671
        0x080026f4:    9090e080    ....    DCD    2425413760
        0x080026f8:    20000020     ..     DCD    536870944
        0x080026fc:    20203f20     ?      DCD    538984224
        0x08002700:    00000000    ....    DCD    0
        0x08002704:    80808080    ....    DCD    2155905152
        0x08002708:    6b000080    ...k    DCD    1795162240
        0x0800270c:    93949494    ....    DCD    2475988116
        0x08002710:    f0100060    `...    DCD    4027580512
        0x08002714:    80808000    ....    DCD    2155905024
        0x08002718:    3f200000    .. ?    DCD    1059061760
        0x0800271c:    20000021    !..     DCD    536870945
        0x08002720:    8000203f    ? ..    DCD    2147491903
        0x08002724:    00009898    ....    DCD    39064
        0x08002728:    20000000    ...     DCD    536870912
        0x0800272c:    20203f20     ?      DCD    538984224
        0x08002730:    00000000    ....    DCD    0
        0x08002734:    98988000    ....    DCD    2560131072
        0x08002738:    c0000000    ....    DCD    3221225472
        0x0800273c:    7f808080    ....    DCD    2139127936
        0x08002740:    f0100000    ....    DCD    4027580416
        0x08002744:    80800000    ....    DCD    2155872256
        0x08002748:    3f200080    .. ?    DCD    1059061888
        0x0800274c:    30290624    $.)0    DCD    807994916
        0x08002750:    10000020     ...    DCD    268435488
        0x08002754:    0000f810    ....    DCD    63504
        0x08002758:    20000000    ...     DCD    536870912
        0x0800275c:    20203f20     ?      DCD    538984224
        0x08002760:    80800000    ....    DCD    2155872256
        0x08002764:    80808080    ....    DCD    2155905152
        0x08002768:    3f200080    .. ?    DCD    1059061888
        0x0800276c:    203f0020     .?     DCD    540999712
        0x08002770:    80803f00    .?..    DCD    2155888384
        0x08002774:    80808000    ....    DCD    2155905024
        0x08002778:    3f200000    .. ?    DCD    1059061760
        0x0800277c:    20000021    !..     DCD    536870945
        0x08002780:    0000203f    ? ..    DCD    8255
        0x08002784:    80808080    ....    DCD    2155905152
        0x08002788:    1f000000    ....    DCD    520093696
        0x0800278c:    20202020            DCD    538976288
        0x08002790:    8080001f    ....    DCD    2155872287
        0x08002794:    00808000    ....    DCD    8421376
        0x08002798:    ff800000    ....    DCD    4286578688
        0x0800279c:    11202091    .  .    DCD    287318161
        0x080027a0:    0000000e    ....    DCD    14
        0x080027a4:    00808000    ....    DCD    8421376
        0x080027a8:    0e000080    ....    DCD    234881152
        0x080027ac:    91202011    .  .    DCD    2434801681
        0x080027b0:    808080ff    ....    DCD    2155905279
        0x080027b4:    80800080    ....    DCD    2155872384
        0x080027b8:    20200080    ..      DCD    538968192
        0x080027bc:    0020213f    ?! .    DCD    2105663
        0x080027c0:    00000001    ....    DCD    1
        0x080027c4:    80808080    ....    DCD    2155905152
        0x080027c8:    33000080    ...3    DCD    855638144
        0x080027cc:    24242424    $$$$    DCD    606348324
        0x080027d0:    80000019    ....    DCD    2147483673
        0x080027d4:    8080e080    ....    DCD    2155929728
        0x080027d8:    00000000    ....    DCD    0
        0x080027dc:    20201f00    ..      DCD    538976000
        0x080027e0:    80800010    ....    DCD    2155872272
        0x080027e4:    80000000    ....    DCD    2147483648
        0x080027e8:    1f000080    ....    DCD    520093824
        0x080027ec:    10202020       .    DCD    270540832
        0x080027f0:    8080203f    ? ..    DCD    2155880511
        0x080027f4:    80800080    ....    DCD    2155872384
        0x080027f8:    03000080    ....    DCD    50331776
        0x080027fc:    030c300c    .0..    DCD    51130380
        0x08002800:    80800000    ....    DCD    2155872256
        0x08002804:    00808000    ....    DCD    8421376
        0x08002808:    0e018080    ....    DCD    234979456
        0x0800280c:    38070c30    0..8    DCD    939985968
        0x08002810:    80000106    ....    DCD    2147483910
        0x08002814:    80008080    ....    DCD    2147516544
        0x08002818:    20000080    ...     DCD    536871040
        0x0800281c:    312e0e31    1..1    DCD    825101873
        0x08002820:    80800020     ...    DCD    2155872288
        0x08002824:    80000080    ....    DCD    2147483776
        0x08002828:    81008080    ....    DCD    2164293760
        0x0800282c:    06187886    .x..    DCD    102267014
        0x08002830:    80000001    ....    DCD    2147483649
        0x08002834:    80808080    ....    DCD    2155905152
        0x08002838:    21000080    ...!    DCD    553648256
        0x0800283c:    21222c30    0,"!    DCD    555887664
        0x08002840:    00000030    0...    DCD    48
        0x08002844:    fc000000    ....    DCD    4227858432
        0x08002848:    00000202    ....    DCD    514
        0x0800284c:    3e010000    ...>    DCD    1040252928
        0x08002850:    00004040    @@..    DCD    16448
        0x08002854:    00ff0000    ....    DCD    16711680
        0x08002858:    00000000    ....    DCD    0
        0x0800285c:    00ff0000    ....    DCD    16711680
        0x08002860:    02020000    ....    DCD    33685504
        0x08002864:    000000fc    ....    DCD    252
        0x08002868:    40400000    ..@@    DCD    1077936128
        0x0800286c:    0000013e    >...    DCD    318
        0x08002870:    02000000    ....    DCD    33554432
        0x08002874:    04020201    ....    DCD    67240449
        0x08002878:    00000002    ....    DCD    2
        0x0800287c:    00000000    ....    DCD    0
        0x08002880:    00000000    ....    DCD    0
        0x08002884:    00000000    ....    DCD    0
        0x08002888:    00000000    ....    DCD    0
        0x0800288c:    00000000    ....    DCD    0
        0x08002890:    00000000    ....    DCD    0
    Region$$Table$$Base
        0x08002894:    080028b4    .(..    DCD    134228148
        0x08002898:    20000000    ...     DCD    536870912
        0x0800289c:    00000028    (...    DCD    40
        0x080028a0:    08001e18    ....    DCD    134225432
        0x080028a4:    080028dc    .(..    DCD    134228188
        0x080028a8:    20000028    (..     DCD    536870952
        0x080028ac:    00000510    ....    DCD    1296
        0x080028b0:    08001e28    (...    DCD    134225448
    Region$$Table$$Limit

** Section #2 'RW_IRAM1' (SHT_PROGBITS) [SHF_ALLOC + SHF_WRITE]
    Size   : 40 bytes (alignment 4)
    Address: 0x20000000


** Section #3 'RW_IRAM1' (SHT_NOBITS) [SHF_ALLOC + SHF_WRITE]
    Size   : 1296 bytes (alignment 8)
    Address: 0x20000028


** Section #4 '.debug_abbrev' (SHT_PROGBITS)
    Size   : 1476 bytes


** Section #5 '.debug_frame' (SHT_PROGBITS)
    Size   : 3700 bytes


** Section #6 '.debug_info' (SHT_PROGBITS)
    Size   : 56220 bytes


** Section #7 '.debug_line' (SHT_PROGBITS)
    Size   : 17256 bytes


** Section #8 '.debug_loc' (SHT_PROGBITS)
    Size   : 7276 bytes


** Section #9 '.debug_macinfo' (SHT_PROGBITS)
    Size   : 679164 bytes


** Section #10 '.debug_pubnames' (SHT_PROGBITS)
    Size   : 2929 bytes


** Section #11 '.symtab' (SHT_SYMTAB)
    Size   : 8000 bytes (alignment 4)
    String table #12 '.strtab'
    Last local symbol no. 306


** Section #12 '.strtab' (SHT_STRTAB)
    Size   : 8544 bytes


** Section #13 '.note' (SHT_NOTE)
    Size   : 28 bytes (alignment 4)


** Section #14 '.comment' (SHT_PROGBITS)
    Size   : 41100 bytes


** Section #15 '.shstrtab' (SHT_STRTAB)
    Size   : 164 bytes


address     size       variable name                            type
0x08002092  0x800      ascii_font                               array[128] of array[16] of const uint8_t

address     size       variable name                            type
0x20000024  0x4        g_pHI2COLED                              pointer to I2C_HandleTypeDef

address     size       variable name                            type
0x20000020  0x1        mem_mode                                 MEM_MODE

address     size       variable name                            type
0x00000000  0x400      oledBuffer                               array[1024] of uint8_t

address     size       variable name                            type
0x0800207a  0x10       AHBPrescTable                            array[16] of const uint8_t

address     size       variable name                            type
0x0800208a  0x8        APBPrescTable                            array[8] of const uint8_t

address     size       variable name                            type
0x2000001c  0x4        SystemCoreClock                          uint32_t

address     size       variable name                            type
0x20000018  0x4        uwTick                                   volatile uint32_t

address     size       variable name                            type
0x20000010  0x1        uwTickFreq                               HAL_TickFreqTypeDef

address     size       variable name                            type
0x20000014  0x4        uwTickPrio                               uint32_t

address     size       variable name                            type
0x200000f0  0x48       huart1                                   UART_HandleTypeDef
0x200000f0  0x4        huart1.Instance                          pointer to USART_TypeDef
0x200000f4  0x1c       huart1.Init                              UART_InitTypeDef
0x200000f4  0x4        huart1.Init.BaudRate                     uint32_t
0x200000f8  0x4        huart1.Init.WordLength                   uint32_t
0x200000fc  0x4        huart1.Init.StopBits                     uint32_t
0x20000100  0x4        huart1.Init.Parity                       uint32_t
0x20000104  0x4        huart1.Init.Mode                         uint32_t
0x20000108  0x4        huart1.Init.HwFlowCtl                    uint32_t
0x2000010c  0x4        huart1.Init.OverSampling                 uint32_t
0x20000110  0x4        huart1.pTxBuffPtr                        pointer to const uint8_t
0x20000114  0x2        huart1.TxXferSize                        uint16_t
0x20000116  0x2        huart1.TxXferCount                       volatile uint16_t
0x20000118  0x4        huart1.pRxBuffPtr                        pointer to uint8_t
0x2000011c  0x2        huart1.RxXferSize                        uint16_t
0x2000011e  0x2        huart1.RxXferCount                       volatile uint16_t
0x20000120  0x4        huart1.ReceptionType                     volatile HAL_UART_RxTypeTypeDef
0x20000124  0x4        huart1.RxEventType                       volatile HAL_UART_RxEventTypeTypeDef
0x20000128  0x4        huart1.hdmatx                            pointer to DMA_HandleTypeDef
0x2000012c  0x4        huart1.hdmarx                            pointer to DMA_HandleTypeDef
0x20000130  0x1        huart1.Lock                              HAL_LockTypeDef
0x20000131  0x1        huart1.gState                            volatile HAL_UART_StateTypeDef
0x20000132  0x1      * huart1.RxState                           volatile HAL_UART_StateTypeDef
0x20000134  0x4        huart1.ErrorCode                         volatile uint32_t

address     size       variable name                            type
0x2000009c  0x54       hi2c1                                    I2C_HandleTypeDef
0x2000009c  0x4        hi2c1.Instance                           pointer to I2C_TypeDef
0x200000a0  0x20       hi2c1.Init                               I2C_InitTypeDef
0x200000a0  0x4        hi2c1.Init.ClockSpeed                    uint32_t
0x200000a4  0x4        hi2c1.Init.DutyCycle                     uint32_t
0x200000a8  0x4        hi2c1.Init.OwnAddress1                   uint32_t
0x200000ac  0x4        hi2c1.Init.AddressingMode                uint32_t
0x200000b0  0x4        hi2c1.Init.DualAddressMode               uint32_t
0x200000b4  0x4        hi2c1.Init.OwnAddress2                   uint32_t
0x200000b8  0x4        hi2c1.Init.GeneralCallMode               uint32_t
0x200000bc  0x4        hi2c1.Init.NoStretchMode                 uint32_t
0x200000c0  0x4        hi2c1.pBuffPtr                           pointer to uint8_t
0x200000c4  0x2        hi2c1.XferSize                           uint16_t
0x200000c6  0x2        hi2c1.XferCount                          volatile uint16_t
0x200000c8  0x4        hi2c1.XferOptions                        volatile uint32_t
0x200000cc  0x4        hi2c1.PreviousState                      volatile uint32_t
0x200000d0  0x4        hi2c1.hdmatx                             pointer to DMA_HandleTypeDef
0x200000d4  0x4        hi2c1.hdmarx                             pointer to DMA_HandleTypeDef
0x200000d8  0x1        hi2c1.Lock                               HAL_LockTypeDef
0x200000d9  0x1        hi2c1.State                              volatile HAL_I2C_StateTypeDef
0x200000da  0x1      * hi2c1.Mode                               volatile HAL_I2C_ModeTypeDef
0x200000dc  0x4        hi2c1.ErrorCode                          volatile uint32_t
0x200000e0  0x4        hi2c1.Devaddress                         volatile uint32_t
0x200000e4  0x4        hi2c1.Memaddress                         volatile uint32_t
0x200000e8  0x4        hi2c1.MemaddSize                         volatile uint32_t
0x200000ec  0x4        hi2c1.EventCount                         volatile uint32_t

address     size       variable name                            type
0x20000028  0x64       g_data_buf                               array[100] of uint8_t

address     size       variable name                            type
0x2000008c  0x10       g_key_bufs                               circle_buf
0x2000008c  0x4        g_key_bufs.r                             uint32_t
0x20000090  0x4        g_key_bufs.w                             uint32_t
0x20000094  0x4        g_key_bufs.len                           uint32_t
0x20000098  0x4        g_key_bufs.buf                           pointer to uint8_t

address     size       variable name                            type
0x20000000  0x4        g_key_cnt                                int

address     size       variable name                            type
0x20000004  0xc        key_timer                                soft_timer
0x20000004  0x4        key_timer.timeout                        uint32_t
0x20000008  0x4        key_timer.args                           pointer to unknown Type 
0x2000000c  0x4        key_timer.func                           pointer to function 

